
obj/kernel.elf:	file format ELF32-nyuzi

Disassembly of section .text:
0000000000002000 start_timer:
    2000:	18 fc ff 4f 	movehi s0, 524280
    2004:	3d 04 00 4f 	movehi s1, 61
    2008:	00 00 09 00 	or s0, s0, 576
    200c:	21 80 04 00 	or s1, s1, 288
    2010:	20 00 00 88 	store_32 s1, (s0)
    2014:	1f 00 00 f0 	ret

0000000000002018 kernel_main:
    2018:	de 03 fe 05 	add_i sp, sp, -128
    201c:	1e f3 01 88 	store_32 s24, 124(sp)
    2020:	3e e3 01 88 	store_32 s25, 120(sp)
    2024:	5e d3 01 88 	store_32 s26, 116(sp)
    2028:	7e c3 01 88 	store_32 s27, 112(sp)
    202c:	fe b3 01 88 	store_32 ra, 108(sp)
    2030:	00 03 f0 c0 	move s24, s0
    2034:	ae 11 00 f8 	call 18104 <vm_page_init>
    2038:	4d 10 00 f8 	call 16692 <vm_translation_map_init>
    203c:	38 30 00 0a 	shr s1, s24, 12
    2040:	00 03 f0 c0 	move s24, s0
    2044:	00 00 d0 4f 	movehi s0, 425984
    2048:	21 90 00 07 	mull_i s1, s1, 36
    204c:	01 00 00 c0 	or s0, s1, s0
    2050:	d7 05 00 f8 	call 5980 <boot_init_heap>
    2054:	00 00 fc c0 	move s0, s24
    2058:	70 14 00 f8 	call 20928 <vm_address_space_init>
    205c:	f0 16 00 f8 	call 23488 <bootstrap_vm_cache>
    2060:	5c 07 00 f8 	call 7536 <bool_init_kernel_process>
    2064:	89 07 00 f8 	call 7716 <boot_init_thread>
    2068:	38 ff ff 4f 	movehi s25, 524280
    206c:	20 fc ff 0f 	move s1, -1
    2070:	3e a0 01 88 	store_32 s1, 104(sp)
    2074:	40 00 00 0f 	move s2, 0
    2078:	19 00 04 00 	or s0, s25, 256
    207c:	20 00 00 88 	store_32 s1, (s0)
    2080:	00 00 00 4f 	movehi s0, 0
    2084:	22 00 00 4f 	movehi s1, 2
    2088:	00 54 1e 00 	or s0, s0, 1941
    208c:	21 20 0d 00 	or s1, s1, 840
    2090:	bc 09 00 f8 	call 9968 <spawn_kernel_thread>
    2094:	00 00 00 4f 	movehi s0, 0
    2098:	00 00 15 00 	or s0, s0, 1344
    209c:	f1 09 00 f8 	call 10180 <exec_program>
    20a0:	20 00 00 4f 	movehi s1, 0
    20a4:	00 03 f0 c0 	move s24, s0
    20a8:	39 13 04 00 	or s25, s25, 260
    20ac:	61 7f 22 00 	or s27, s1, 2207
    20b0:	58 53 00 05 	add_i s26, s24, 20
    20b4:	18 60 00 a8 	load_32 s0, 24(s24)
    20b8:	00 00 1d c1 	cmpne_i s0, s0, s26
    20bc:	40 00 00 f4 	bnz s0, 8 <kernel_main+0xac>
    20c0:	05 00 00 f6 	b 20 <kernel_main+0xbc>
    20c4:	1c 09 00 f8 	call 9328 <reschedule>
    20c8:	18 60 00 a8 	load_32 s0, 24(s24)
    20cc:	00 00 1d c1 	cmpne_i s0, s0, s26
    20d0:	a0 ff ff f5 	bnz s0, -12 <kernel_main+0xac>
    20d4:	7e 03 00 88 	store_32 s27, (sp)
    20d8:	68 00 00 f8 	call 416 <kprintf>
    20dc:	1e a0 01 a8 	load_32 s0, 104(sp)
    20e0:	19 00 00 88 	store_32 s0, (s25)
    20e4:	f8 ff ff f7 	b -32 <kernel_main+0xac>

00000000000020e8 thread_n_main:
    20e8:	de 03 ff 05 	add_i sp, sp, -64
    20ec:	fe f3 00 88 	store_32 ra, 60(sp)
    20f0:	66 07 00 f8 	call 7576 <boot_init_thread>
    20f4:	00 04 00 0f 	move s0, 1
    20f8:	80 04 00 f8 	call 4608 <unmask_interrupt>
    20fc:	0e 09 00 f8 	call 9272 <reschedule>
    2100:	ff ff ff f7 	b -4 <thread_n_main+0x14>

0000000000002104 _start:
    2104:	00 00 00 ac 	getcr s0, 0
    2108:	20 02 00 f4 	bnz s0, 68 <start_thread_n>
    210c:	c0 43 00 4f 	movehi sp, 512
    2110:	00 00 01 4f 	movehi s0, 2048
    2114:	01 0f 00 f8 	call 15364 <boot_setup_page_tables>
    2118:	01 00 00 4f 	movehi s0, 1
    211c:	00 50 49 00 	or s0, s0, 4692
    2120:	3f fc 00 4f 	movehi s1, 2047
    2124:	21 fc 7f 00 	or s1, s1, 8191
    2128:	00 80 10 c0 	and s0, s0, s1
    212c:	07 00 00 8c 	setcr s0, 7
    2130:	01 00 00 4f 	movehi s0, 1
    2134:	00 e0 42 00 	or s0, s0, 4280
    2138:	01 00 00 8c 	setcr s0, 1
    213c:	01 00 00 4f 	movehi s0, 1
    2140:	00 60 00 00 	or s0, s0, 24
    2144:	02 00 00 8c 	setcr s0, 2
    2148:	04 00 00 f6 	b 16 <trampoline>

000000000000214c start_thread_n:
    214c:	01 00 00 4f 	movehi s0, 1
    2150:	00 a0 03 00 	or s0, s0, 232
    2154:	02 00 00 8c 	setcr s0, 2

0000000000002158 trampoline:
    2158:	04 00 00 4f 	movehi s0, 4
    215c:	00 00 40 00 	or s0, s0, 4096
    2160:	3f fc 00 4f 	movehi s1, 2047
    2164:	21 fc 7f 00 	or s1, s1, 8191
    2168:	00 80 10 c0 	and s0, s0, s1
    216c:	00 00 00 a8 	load_32 s0, (s0)
    2170:	0a 00 00 8c 	setcr s0, 10
    2174:	00 1c 00 0f 	move s0, 7
    2178:	08 00 00 8c 	setcr s0, 8
    217c:	00 00 00 ac 	getcr s0, 0
    2180:	00 38 00 0b 	shl s0, s0, 14
    2184:	d8 ff ff 4f 	movehi sp, 524280
    2188:	de 03 60 c0 	sub_i sp, sp, s0
    218c:	00 00 01 4f 	movehi s0, 2048
    2190:	00 00 00 fe 	eret

0000000000002194 isdigit:
    2194:	00 40 ff 05 	add_i s0, s0, -48
    2198:	00 28 00 18 	cmplt_u s0, s0, 10
    219c:	00 04 00 01 	and s0, s0, 1
    21a0:	1f 00 00 f0 	ret

00000000000021a4 memchr:
    21a4:	e2 01 00 f2 	bz s2, 60 <memchr+0x3c>
    21a8:	80 00 00 0f 	move s4, 0
    21ac:	a0 00 f2 c0 	move s5, s4
    21b0:	60 80 52 c0 	add_i s3, s0, s5
    21b4:	c3 00 00 a2 	load_s8 s6, (s3)
    21b8:	c6 80 10 c1 	cmpne_i s6, s6, s1
    21bc:	46 00 00 f4 	bnz s6, 8 <memchr+0x20>
    21c0:	0b 00 00 f6 	b 44 <memchr+0x48>
    21c4:	a5 04 00 05 	add_i s5, s5, 1
    21c8:	65 00 71 c1 	cmpge_u s3, s5, s2
    21cc:	43 00 00 f4 	bnz s3, 8 <memchr+0x30>
    21d0:	f8 ff ff f7 	b -32 <memchr+0xc>
    21d4:	60 00 f2 c0 	move s3, s4
    21d8:	00 80 f1 c0 	move s0, s3
    21dc:	1f 00 00 f0 	ret
    21e0:	60 00 00 0f 	move s3, 0
    21e4:	00 80 f1 c0 	move s0, s3
    21e8:	1f 00 00 f0 	ret
    21ec:	00 80 f1 c0 	move s0, s3
    21f0:	1f 00 00 f0 	ret

00000000000021f4 strcmp:
    21f4:	60 00 00 a0 	load_u8 s3, (s0)
    21f8:	40 00 00 0f 	move s2, 0
    21fc:	23 01 00 f2 	bz s3, 36 <strcmp+0x2c>
    2200:	81 00 00 a0 	load_u8 s4, (s1)
    2204:	a3 fc 03 01 	and s5, s3, 255
    2208:	85 00 12 c1 	cmpne_i s4, s5, s4
    220c:	24 01 00 f4 	bnz s4, 36 <strcmp+0x3c>
    2210:	60 04 00 a0 	load_u8 s3, 1(s0)
    2214:	00 04 00 05 	add_i s0, s0, 1
    2218:	21 04 00 05 	add_i s1, s1, 1
    221c:	23 ff ff f5 	bnz s3, -28 <strcmp+0xc>
    2220:	01 00 00 a2 	load_s8 s0, (s1)
    2224:	20 00 d1 c1 	sext_8 s1, s2
    2228:	01 00 60 c0 	sub_i s0, s1, s0
    222c:	1f 00 00 f0 	ret
    2230:	40 80 f1 c0 	move s2, s3
    2234:	01 00 00 a2 	load_s8 s0, (s1)
    2238:	20 00 d1 c1 	sext_8 s1, s2
    223c:	01 00 60 c0 	sub_i s0, s1, s0
    2240:	1f 00 00 f0 	ret

0000000000002244 strchr:
    2244:	40 00 f0 c0 	move s2, s0
    2248:	00 00 00 0f 	move s0, 0
    224c:	62 00 00 a0 	load_u8 s3, (s2)
    2250:	e3 00 00 f2 	bz s3, 28 <strchr+0x28>
    2254:	60 80 d1 c1 	sext_8 s3, s3
    2258:	63 80 00 c1 	cmpeq_i s3, s3, s1
    225c:	a3 00 00 f4 	bnz s3, 20 <strchr+0x2c>
    2260:	62 04 00 a0 	load_u8 s3, 1(s2)
    2264:	42 04 00 05 	add_i s2, s2, 1
    2268:	63 ff ff f5 	bnz s3, -20 <strchr+0x10>
    226c:	1f 00 00 f0 	ret
    2270:	00 00 f1 c0 	move s0, s2
    2274:	1f 00 00 f0 	ret

0000000000002278 kprintf:
    2278:	de 03 ff 05 	add_i sp, sp, -64
    227c:	fe f3 00 88 	store_32 ra, 60(sp)
    2280:	1e 00 01 a8 	load_32 s0, 64(sp)
    2284:	3e 10 01 05 	add_i s1, sp, 68
    2288:	3e e0 00 88 	store_32 s1, 56(sp)
    228c:	05 00 00 f8 	call 20 <vprintf>
    2290:	00 00 00 0f 	move s0, 0
    2294:	fe f3 00 a8 	load_32 ra, 60(sp)
    2298:	de 03 01 05 	add_i sp, sp, 64
    229c:	1f 00 00 f0 	ret

00000000000022a0 vprintf:
    22a0:	de 03 fd 05 	add_i sp, sp, -192
    22a4:	1e f3 02 88 	store_32 s24, 188(sp)
    22a8:	3e e3 02 88 	store_32 s25, 184(sp)
    22ac:	5e d3 02 88 	store_32 s26, 180(sp)
    22b0:	7e c3 02 88 	store_32 s27, 176(sp)
    22b4:	fe b3 02 88 	store_32 ra, 172(sp)
    22b8:	60 03 f0 c0 	move s27, s0
    22bc:	3e a0 02 88 	store_32 s1, 168(sp)
    22c0:	3b 00 00 a0 	load_u8 s1, (s27)
    22c4:	81 33 00 f2 	bz s1, 1648 <vprintf+0x694>
    22c8:	00 00 00 4f 	movehi s0, 0
    22cc:	40 04 00 0f 	move s2, 1
    22d0:	5e 30 01 88 	store_32 s2, 76(sp)
    22d4:	40 00 00 4f 	movehi s2, 0
    22d8:	20 33 26 00 	or s25, s0, 2444
    22dc:	00 00 00 4f 	movehi s0, 0
    22e0:	00 03 00 0f 	move s24, 0
    22e4:	40 a3 06 00 	or s26, s0, 424
    22e8:	00 08 00 0f 	move s0, 2
    22ec:	1e 50 01 88 	store_32 s0, 84(sp)
    22f0:	02 20 2d 00 	or s0, s2, 2888
    22f4:	1e 00 01 88 	store_32 s0, 64(sp)
    22f8:	1a 08 00 05 	add_i s0, s26, 2
    22fc:	1e c0 00 88 	store_32 s0, 48(sp)
    2300:	00 94 00 0f 	move s0, 37
    2304:	1e b0 00 88 	store_32 s0, 44(sp)
    2308:	1a 04 00 05 	add_i s0, s26, 1
    230c:	1e a0 00 88 	store_32 s0, 40(sp)
    2310:	1a 0c 00 05 	add_i s0, s26, 3
    2314:	1e 90 00 88 	store_32 s0, 36(sp)
    2318:	00 10 00 0f 	move s0, 4
    231c:	1e 60 01 88 	store_32 s0, 88(sp)
    2320:	00 0c 00 0f 	move s0, 3
    2324:	1e 20 01 88 	store_32 s0, 72(sp)
    2328:	00 14 00 0f 	move s0, 5
    232c:	1e 10 01 88 	store_32 s0, 68(sp)
    2330:	1e 83 01 88 	store_32 s24, 96(sp)
    2334:	1e 93 01 88 	store_32 s24, 100(sp)
    2338:	1e 73 01 88 	store_32 s24, 92(sp)
    233c:	00 00 fc c0 	move s0, s24
    2340:	1e f3 00 88 	store_32 s24, 60(sp)
    2344:	3e e3 00 88 	store_32 s25, 56(sp)
    2348:	5e d3 00 88 	store_32 s26, 52(sp)
    234c:	40 14 00 16 	cmpgt_u s2, s0, 5
    2350:	02 0f 00 f4 	bnz s2, 480 <vprintf+0x290>
    2354:	00 08 00 0b 	shl s0, s0, 2
    2358:	00 80 5c c0 	add_i s0, s0, s25
    235c:	00 00 00 a8 	load_32 s0, (s0)
    2360:	00 00 00 f0 	b s0
    2364:	01 fc 03 01 	and s0, s1, 255
    2368:	7b 07 00 05 	add_i s27, s27, 1
    236c:	00 94 00 10 	cmpeq_i s0, s0, 37
    2370:	40 00 00 f4 	bnz s0, 8 <vprintf+0xd8>
    2374:	61 00 00 f6 	b 388 <vprintf+0x258>
    2378:	1e 30 01 a8 	load_32 s0, 76(sp)
    237c:	1e 73 01 88 	store_32 s24, 92(sp)
    2380:	1e 93 01 88 	store_32 s24, 100(sp)
    2384:	1e 83 01 88 	store_32 s24, 96(sp)
    2388:	3b 00 00 a0 	load_u8 s1, (s27)
    238c:	01 fe ff f5 	bnz s1, -64 <vprintf+0xac>
    2390:	69 01 00 f6 	b 1444 <vprintf+0x694>
    2394:	01 fc 03 01 	and s0, s1, 255
    2398:	00 80 ff 05 	add_i s0, s0, -32
    239c:	20 40 00 16 	cmpgt_u s1, s0, 16
    23a0:	41 21 00 f4 	bnz s1, 1064 <vprintf+0x528>
    23a4:	3e 00 01 a8 	load_32 s1, 64(sp)
    23a8:	00 08 00 0b 	shl s0, s0, 2
    23ac:	00 80 50 c0 	add_i s0, s0, s1
    23b0:	40 00 00 a8 	load_32 s2, (s0)
    23b4:	20 00 fd c0 	move s1, s26
    23b8:	1e 50 01 a8 	load_32 s0, 84(sp)
    23bc:	02 00 00 f0 	b s2
    23c0:	3e c0 00 a8 	load_32 s1, 48(sp)
    23c4:	6c 00 00 f6 	b 432 <vprintf+0x2d4>
    23c8:	00 80 d0 c1 	sext_8 s0, s1
    23cc:	00 40 ff 05 	add_i s0, s0, -48
    23d0:	40 24 00 16 	cmpgt_u s2, s0, 9
    23d4:	e2 09 00 f4 	bnz s2, 316 <vprintf+0x270>
    23d8:	3e 90 01 a8 	load_32 s1, 100(sp)
    23dc:	7b 07 00 05 	add_i s27, s27, 1
    23e0:	21 28 00 07 	mull_i s1, s1, 10
    23e4:	00 80 50 c0 	add_i s0, s0, s1
    23e8:	1e 90 01 88 	store_32 s0, 100(sp)
    23ec:	1e 50 01 a8 	load_32 s0, 84(sp)
    23f0:	3b 00 00 a0 	load_u8 s1, (s27)
    23f4:	c1 fa ff f5 	bnz s1, -168 <vprintf+0xac>
    23f8:	4f 01 00 f6 	b 1340 <vprintf+0x694>
    23fc:	00 80 d0 c1 	sext_8 s0, s1
    2400:	00 40 ff 05 	add_i s0, s0, -48
    2404:	20 24 00 16 	cmpgt_u s1, s0, 9
    2408:	a1 09 00 f4 	bnz s1, 308 <vprintf+0x29c>
    240c:	3e 70 01 a8 	load_32 s1, 92(sp)
    2410:	7b 07 00 05 	add_i s27, s27, 1
    2414:	21 28 00 07 	mull_i s1, s1, 10
    2418:	00 80 50 c0 	add_i s0, s0, s1
    241c:	1e 70 01 88 	store_32 s0, 92(sp)
    2420:	1e 20 01 a8 	load_32 s0, 72(sp)
    2424:	3b 00 00 a0 	load_u8 s1, (s27)
    2428:	21 f9 ff f5 	bnz s1, -220 <vprintf+0xac>
    242c:	42 01 00 f6 	b 1288 <vprintf+0x694>
    2430:	01 fc 03 01 	and s0, s1, 255
    2434:	00 e8 fe 05 	add_i s0, s0, -70
    2438:	20 98 00 16 	cmpgt_u s1, s0, 38
    243c:	e1 1c 00 f4 	bnz s1, 924 <vprintf+0x538>
    2440:	20 00 00 4f 	movehi s1, 0
    2444:	00 08 00 0b 	shl s0, s0, 2
    2448:	21 b0 2a 00 	or s1, s1, 2732
    244c:	00 80 50 c0 	add_i s0, s0, s1
    2450:	20 00 00 a8 	load_32 s1, (s0)
    2454:	1e 10 01 a8 	load_32 s0, 68(sp)
    2458:	01 00 00 f0 	b s1
    245c:	7b 07 00 05 	add_i s27, s27, 1
    2460:	1e 60 01 a8 	load_32 s0, 88(sp)
    2464:	3b 00 00 a0 	load_u8 s1, (s27)
    2468:	21 f7 ff f5 	bnz s1, -284 <vprintf+0xac>
    246c:	32 01 00 f6 	b 1224 <vprintf+0x694>
    2470:	00 80 d0 c1 	sext_8 s0, s1
    2474:	00 a0 fe 05 	add_i s0, s0, -88
    2478:	20 80 00 16 	cmpgt_u s1, s0, 32
    247c:	41 19 00 f4 	bnz s1, 808 <vprintf+0x504>
    2480:	20 00 00 4f 	movehi s1, 0
    2484:	00 08 00 0b 	shl s0, s0, 2
    2488:	21 90 26 00 	or s1, s1, 2468
    248c:	00 80 50 c0 	add_i s0, s0, s1
    2490:	00 00 00 a8 	load_32 s0, (s0)
    2494:	00 00 00 f0 	b s0
    2498:	1e a0 02 a8 	load_32 s0, 168(sp)
    249c:	00 0c 00 05 	add_i s0, s0, 3
    24a0:	00 f0 ff 01 	and s0, s0, -4
    24a4:	20 10 00 05 	add_i s1, s0, 4
    24a8:	3e a0 02 88 	store_32 s1, 168(sp)
    24ac:	40 03 00 a8 	load_32 s26, (s0)
    24b0:	7e 43 01 88 	store_32 s27, 80(sp)
    24b4:	1b 00 00 a0 	load_u8 s0, (s27)
    24b8:	20 a0 fe 05 	add_i s1, s0, -88
    24bc:	41 80 00 16 	cmpgt_u s2, s1, 32
    24c0:	82 0d 00 f4 	bnz s2, 432 <vprintf+0x3d0>
    24c4:	40 00 00 4f 	movehi s2, 0
    24c8:	21 08 00 0b 	shl s1, s1, 2
    24cc:	00 43 00 0f 	move s24, 16
    24d0:	42 a0 28 00 	or s2, s2, 2600
    24d4:	21 00 51 c0 	add_i s1, s1, s2
    24d8:	60 23 00 0f 	move s27, 8
    24dc:	21 00 00 a8 	load_32 s1, (s1)
    24e0:	01 00 00 f0 	b s1
    24e4:	20 a4 01 10 	cmpeq_i s1, s0, 105
    24e8:	c1 0c 00 f4 	bnz s1, 408 <vprintf+0x3e0>
    24ec:	00 90 01 11 	cmpne_i s0, s0, 100
    24f0:	40 0d 00 f4 	bnz s0, 424 <vprintf+0x3f8>
    24f4:	63 00 00 f6 	b 396 <vprintf+0x3e0>
    24f8:	00 80 d0 c1 	sext_8 s0, s1
    24fc:	cd 02 00 f8 	call 2868 <putc>
    2500:	00 00 fc c0 	move s0, s24
    2504:	3b 00 00 a0 	load_u8 s1, (s27)
    2508:	21 f2 ff f5 	bnz s1, -444 <vprintf+0xac>
    250c:	0a 01 00 f6 	b 1064 <vprintf+0x694>
    2510:	01 fc 03 01 	and s0, s1, 255
    2514:	20 b8 00 10 	cmpeq_i s1, s0, 46
    2518:	1e 20 01 a8 	load_32 s0, 72(sp)
    251c:	41 00 00 f4 	bnz s1, 8 <vprintf+0x284>
    2520:	1e 60 01 a8 	load_32 s0, 88(sp)
    2524:	41 00 00 f4 	bnz s1, 8 <vprintf+0x28c>
    2528:	02 00 00 f6 	b 8 <vprintf+0x290>
    252c:	7b 07 00 05 	add_i s27, s27, 1
    2530:	3b 00 00 a0 	load_u8 s1, (s27)
    2534:	c1 f0 ff f5 	bnz s1, -488 <vprintf+0xac>
    2538:	ff 00 00 f6 	b 1020 <vprintf+0x694>
    253c:	1e 60 01 a8 	load_32 s0, 88(sp)
    2540:	3b 00 00 a0 	load_u8 s1, (s27)
    2544:	41 f0 ff f5 	bnz s1, -504 <vprintf+0xac>
    2548:	fb 00 00 f6 	b 1004 <vprintf+0x694>
    254c:	1e b0 00 a8 	load_32 s0, 44(sp)
    2550:	7b 07 00 05 	add_i s27, s27, 1
    2554:	b7 02 00 f8 	call 2780 <putc>
    2558:	00 00 fc c0 	move s0, s24
    255c:	3b 00 00 a0 	load_u8 s1, (s27)
    2560:	61 ef ff f5 	bnz s1, -532 <vprintf+0xac>
    2564:	f4 00 00 f6 	b 976 <vprintf+0x694>
    2568:	3e a0 00 a8 	load_32 s1, 40(sp)
    256c:	02 00 00 f6 	b 8 <vprintf+0x2d4>
    2570:	3e 90 00 a8 	load_32 s1, 36(sp)
    2574:	01 00 6d c0 	sub_i s0, s1, s26
    2578:	3e 30 01 a8 	load_32 s1, 76(sp)
    257c:	5e 80 01 a8 	load_32 s2, 96(sp)
    2580:	7b 07 00 05 	add_i s27, s27, 1
    2584:	01 00 b0 c0 	shl s0, s1, s0
    2588:	40 00 01 c0 	or s2, s0, s2
    258c:	5e 80 01 88 	store_32 s2, 96(sp)
    2590:	00 80 f0 c0 	move s0, s1
    2594:	3b 00 00 a0 	load_u8 s1, (s27)
    2598:	a1 ed ff f5 	bnz s1, -588 <vprintf+0xac>
    259c:	e6 00 00 f6 	b 920 <vprintf+0x694>
    25a0:	7e 43 01 88 	store_32 s27, 80(sp)
    25a4:	20 00 00 4f 	movehi s1, 0
    25a8:	1e a0 02 a8 	load_32 s0, 168(sp)
    25ac:	41 13 26 00 	or s26, s1, 2436
    25b0:	27 00 00 4f 	movehi s1, 7
    25b4:	00 0c 00 05 	add_i s0, s0, 3
    25b8:	61 ff 7f 00 	or s27, s1, 8191
    25bc:	00 f0 ff 01 	and s0, s0, -4
    25c0:	40 10 00 05 	add_i s2, s0, 4
    25c4:	5e a0 02 88 	store_32 s2, 168(sp)
    25c8:	00 03 00 a8 	load_32 s24, (s0)
    25cc:	1a 00 00 a8 	load_32 s0, (s26)
    25d0:	18 00 e0 c2 	cmplt_f s0, s24, s0
    25d4:	00 80 1d c1 	cmpne_i s0, s0, s27
    25d8:	a0 00 00 f4 	bnz s0, 20 <vprintf+0x34c>
    25dc:	00 b4 00 0f 	move s0, 45
    25e0:	94 02 00 f8 	call 2640 <putc>
    25e4:	00 00 80 4f 	movehi s0, 262144
    25e8:	18 03 30 c0 	xor s24, s24, s0
    25ec:	20 03 bc c1 	ftoi s25, s24
    25f0:	1e 83 00 88 	store_32 s24, 32(sp)
    25f4:	59 00 00 f4 	bnz s25, 8 <vprintf+0x35c>
    25f8:	ac 00 00 f6 	b 688 <vprintf+0x608>
    25fc:	19 04 00 14 	cmplt_i s0, s25, 1
    2600:	3e 73 00 88 	store_32 s25, 28(sp)
    2604:	20 03 00 f4 	bnz s0, 100 <vprintf+0x3c8>
    2608:	3e 70 00 a8 	load_32 s1, 28(sp)
    260c:	20 53 00 0f 	move s25, 20
    2610:	46 cc cc 4f 	movehi s2, 419430
    2614:	1e a3 01 05 	add_i s24, sp, 104
    2618:	39 ff ff 05 	add_i s25, s25, -1
    261c:	42 34 33 00 	or s2, s2, 3277
    2620:	41 00 81 c0 	mulh_u s2, s1, s2
    2624:	98 80 5c c0 	add_i s4, s24, s25
    2628:	a1 24 00 16 	cmpgt_u s5, s1, 9
    262c:	42 0c 00 0a 	shr s2, s2, 3
    2630:	62 28 00 07 	mull_i s3, s2, 10
    2634:	61 80 61 c0 	sub_i s3, s1, s3
    2638:	63 c0 00 00 	or s3, s3, 48
    263c:	64 00 00 82 	store_8 s3, (s4)
    2640:	20 00 f1 c0 	move s1, s2
    2644:	65 fe ff f5 	bnz s5, -52 <vprintf+0x370>
    2648:	39 4c 00 16 	cmpgt_u s1, s25, 19
    264c:	e1 00 00 f4 	bnz s1, 28 <vprintf+0x3c8>
    2650:	38 80 5c c0 	add_i s1, s24, s25
    2654:	39 07 00 05 	add_i s25, s25, 1
    2658:	01 00 00 a2 	load_s8 s0, (s1)
    265c:	75 02 00 f8 	call 2516 <putc>
    2660:	39 50 00 18 	cmplt_u s1, s25, 20
    2664:	61 ff ff f5 	bnz s1, -20 <vprintf+0x3b0>
    2668:	3e 73 00 a8 	load_32 s25, 28(sp)
    266c:	91 00 00 f6 	b 580 <vprintf+0x610>
    2670:	00 2b 00 0f 	move s24, 10
    2674:	20 a4 01 10 	cmpeq_i s1, s0, 105
    2678:	41 00 00 f4 	bnz s1, 8 <vprintf+0x3e0>
    267c:	9c ff ff f7 	b -400 <vprintf+0x24c>
    2680:	1a fc ff 12 	cmpgt_i s0, s26, -1
    2684:	a0 00 00 f4 	bnz s0, 20 <vprintf+0x3f8>
    2688:	00 00 00 0f 	move s0, 0
    268c:	40 03 6d c0 	sub_i s26, s0, s26
    2690:	00 b4 00 0f 	move s0, 45
    2694:	67 02 00 f8 	call 2460 <putc>
    2698:	60 03 fc c0 	move s27, s24
    269c:	00 00 fd c0 	move s0, s26
    26a0:	20 80 fd c0 	move s1, s27
    26a4:	d1 19 00 f8 	call 26436 <__umodsi3>
    26a8:	20 00 00 4f 	movehi s1, 0
    26ac:	20 ff 00 0f 	move s25, 63
    26b0:	01 7b 14 00 	or s24, s1, 1310
    26b4:	3b 00 6d c1 	cmpgt_u s1, s27, s26
    26b8:	18 00 50 c0 	add_i s0, s24, s0
    26bc:	00 00 00 a0 	load_u8 s0, (s0)
    26c0:	1e 9c 02 82 	store_8 s0, 167(sp)
    26c4:	01 02 00 f4 	bnz s1, 64 <vprintf+0x464>
    26c8:	00 00 fd c0 	move s0, s26
    26cc:	20 80 fd c0 	move s1, s27
    26d0:	b1 19 00 f8 	call 26308 <__udivsi3>
    26d4:	40 03 f0 c0 	move s26, s0
    26d8:	20 80 fd c0 	move s1, s27
    26dc:	39 ff ff 05 	add_i s25, s25, -1
    26e0:	c2 19 00 f8 	call 26376 <__umodsi3>
    26e4:	3e a0 01 05 	add_i s1, sp, 104
    26e8:	18 00 50 c0 	add_i s0, s24, s0
    26ec:	21 80 5c c0 	add_i s1, s1, s25
    26f0:	00 00 00 a0 	load_u8 s0, (s0)
    26f4:	01 00 00 82 	store_8 s0, (s1)
    26f8:	79 00 00 f2 	bz s25, 12 <vprintf+0x464>
    26fc:	1b 00 9d c1 	cmple_u s0, s27, s26
    2700:	40 fe ff f5 	bnz s0, -56 <vprintf+0x428>
    2704:	1e 80 01 a8 	load_32 s0, 96(sp)
    2708:	00 20 00 01 	and s0, s0, 8
    270c:	00 00 00 10 	cmpeq_i s0, s0, 0
    2710:	60 00 00 f4 	bnz s0, 12 <vprintf+0x47c>
    2714:	40 c3 00 0f 	move s26, 48
    2718:	02 00 00 f6 	b 8 <vprintf+0x480>
    271c:	40 83 00 0f 	move s26, 32
    2720:	00 00 01 0f 	move s0, 64
    2724:	7e 43 01 a8 	load_32 s27, 80(sp)
    2728:	3e 90 01 a8 	load_32 s1, 100(sp)
    272c:	00 83 6c c0 	sub_i s24, s0, s25
    2730:	18 80 30 c1 	cmpge_i s0, s24, s1
    2734:	00 01 00 f4 	bnz s0, 32 <vprintf+0x4b4>
    2738:	00 00 fd c0 	move s0, s26
    273c:	3d 02 00 f8 	call 2292 <putc>
    2740:	3e 90 01 a8 	load_32 s1, 100(sp)
    2744:	18 07 00 05 	add_i s24, s24, 1
    2748:	18 80 40 c1 	cmplt_i s0, s24, s1
    274c:	60 ff ff f5 	bnz s0, -20 <vprintf+0x498>
    2750:	00 83 f0 c0 	move s24, s1
    2754:	5e 73 01 a8 	load_32 s26, 92(sp)
    2758:	18 00 3d c1 	cmpge_i s0, s24, s26
    275c:	c0 00 00 f4 	bnz s0, 24 <vprintf+0x4d4>
    2760:	00 c0 00 0f 	move s0, 48
    2764:	33 02 00 f8 	call 2252 <putc>
    2768:	18 07 00 05 	add_i s24, s24, 1
    276c:	18 00 4d c1 	cmplt_i s0, s24, s26
    2770:	80 ff ff f5 	bnz s0, -16 <vprintf+0x4c0>
    2774:	5e d3 00 a8 	load_32 s26, 52(sp)
    2778:	19 fc 00 12 	cmpgt_i s0, s25, 63
    277c:	00 01 00 f4 	bnz s0, 32 <vprintf+0x4fc>
    2780:	1e a0 01 05 	add_i s0, sp, 104
    2784:	00 80 5c c0 	add_i s0, s0, s25
    2788:	39 07 00 05 	add_i s25, s25, 1
    278c:	00 00 00 a2 	load_s8 s0, (s0)
    2790:	28 02 00 f8 	call 2208 <putc>
    2794:	19 00 01 18 	cmplt_u s0, s25, 64
    2798:	40 ff ff f5 	bnz s0, -24 <vprintf+0x4e0>
    279c:	1e f3 00 a8 	load_32 s24, 60(sp)
    27a0:	3e e3 00 a8 	load_32 s25, 56(sp)
    27a4:	7b 07 00 05 	add_i s27, s27, 1
    27a8:	00 00 fc c0 	move s0, s24
    27ac:	3b 00 00 a0 	load_u8 s1, (s27)
    27b0:	e1 dc ff f5 	bnz s1, -1124 <vprintf+0xac>
    27b4:	60 00 00 f6 	b 384 <vprintf+0x694>
    27b8:	00 20 00 0f 	move s0, 8
    27bc:	1e 90 01 88 	store_32 s0, 100(sp)
    27c0:	1e 80 01 88 	store_32 s0, 96(sp)
    27c4:	35 ff ff f7 	b -812 <vprintf+0x1f8>
    27c8:	1e 50 01 a8 	load_32 s0, 84(sp)
    27cc:	3b 00 00 a0 	load_u8 s1, (s27)
    27d0:	e1 db ff f5 	bnz s1, -1156 <vprintf+0xac>
    27d4:	58 00 00 f6 	b 352 <vprintf+0x694>
    27d8:	1e 10 01 a8 	load_32 s0, 68(sp)
    27dc:	3b 00 00 a0 	load_u8 s1, (s27)
    27e0:	61 db ff f5 	bnz s1, -1172 <vprintf+0xac>
    27e4:	54 00 00 f6 	b 336 <vprintf+0x694>
    27e8:	1e a0 02 a8 	load_32 s0, 168(sp)
    27ec:	00 0c 00 05 	add_i s0, s0, 3
    27f0:	00 f0 ff 01 	and s0, s0, -4
    27f4:	20 10 00 05 	add_i s1, s0, 4
    27f8:	3e a0 02 88 	store_32 s1, 168(sp)
    27fc:	00 00 00 a8 	load_32 s0, (s0)
    2800:	0c 02 00 f8 	call 2096 <putc>
    2804:	7b 07 00 05 	add_i s27, s27, 1
    2808:	00 00 fc c0 	move s0, s24
    280c:	3b 00 00 a0 	load_u8 s1, (s27)
    2810:	e1 d9 ff f5 	bnz s1, -1220 <vprintf+0xac>
    2814:	48 00 00 f6 	b 288 <vprintf+0x694>
    2818:	1e a0 02 a8 	load_32 s0, 168(sp)
    281c:	00 0c 00 05 	add_i s0, s0, 3
    2820:	00 f0 ff 01 	and s0, s0, -4
    2824:	20 10 00 05 	add_i s1, s0, 4
    2828:	3e a0 02 88 	store_32 s1, 168(sp)
    282c:	5e 73 01 a8 	load_32 s26, 92(sp)
    2830:	00 03 00 a8 	load_32 s24, (s0)
    2834:	3a 00 00 10 	cmpeq_i s1, s26, 0
    2838:	41 00 00 f4 	bnz s1, 8 <vprintf+0x5a0>
    283c:	03 00 00 f6 	b 12 <vprintf+0x5a8>
    2840:	1f fc 7f 4f 	movehi s0, 262143
    2844:	40 ff 7f 00 	or s26, s0, 8191
    2848:	3e 90 01 a8 	load_32 s1, 100(sp)
    284c:	20 03 00 0f 	move s25, 0
    2850:	1a 04 00 14 	cmplt_i s0, s26, 1
    2854:	20 01 00 f4 	bnz s0, 36 <vprintf+0x5d8>
    2858:	18 00 00 a2 	load_s8 s0, (s24)
    285c:	e0 00 00 f2 	bz s0, 28 <vprintf+0x5d8>
    2860:	18 07 00 05 	add_i s24, s24, 1
    2864:	f3 01 00 f8 	call 1996 <putc>
    2868:	39 07 00 05 	add_i s25, s25, 1
    286c:	3e 90 01 a8 	load_32 s1, 100(sp)
    2870:	19 00 4d c1 	cmplt_i s0, s25, s26
    2874:	20 ff ff f5 	bnz s0, -28 <vprintf+0x5b8>
    2878:	01 00 4d c1 	cmplt_i s0, s1, s26
    287c:	00 83 f0 c0 	move s24, s1
    2880:	40 00 00 f4 	bnz s0, 8 <vprintf+0x5e8>
    2884:	00 03 fd c0 	move s24, s26
    2888:	19 00 3c c1 	cmpge_i s0, s25, s24
    288c:	60 04 00 f4 	bnz s0, 140 <vprintf+0x678>
    2890:	00 80 00 0f 	move s0, 32
    2894:	e7 01 00 f8 	call 1948 <putc>
    2898:	39 07 00 05 	add_i s25, s25, 1
    289c:	19 00 4c c1 	cmplt_i s0, s25, s24
    28a0:	80 ff ff f5 	bnz s0, -16 <vprintf+0x5f0>
    28a4:	1d 00 00 f6 	b 116 <vprintf+0x678>
    28a8:	00 c0 00 0f 	move s0, 48
    28ac:	e1 01 00 f8 	call 1924 <putc>
    28b0:	00 b8 00 0f 	move s0, 46
    28b4:	20 83 ac c2 	itof s25, s25
    28b8:	de 01 00 f8 	call 1912 <putc>
    28bc:	1e 73 01 a8 	load_32 s24, 92(sp)
    28c0:	18 00 00 12 	cmpgt_i s0, s24, 0
    28c4:	40 00 00 f4 	bnz s0, 8 <vprintf+0x62c>
    28c8:	00 1f 00 0f 	move s24, 7
    28cc:	1e 80 00 a8 	load_32 s0, 32(sp)
    28d0:	20 83 1c c2 	sub_f s25, s0, s25
    28d4:	00 00 00 4f 	movehi s0, 0
    28d8:	00 20 26 00 	or s0, s0, 2440
    28dc:	00 00 00 a8 	load_32 s0, (s0)
    28e0:	19 00 20 c2 	mul_f s0, s25, s0
    28e4:	20 00 b0 c1 	ftoi s1, s0
    28e8:	40 80 a0 c2 	itof s2, s1
    28ec:	20 03 11 c2 	sub_f s25, s0, s2
    28f0:	01 c0 00 05 	add_i s0, s1, 48
    28f4:	cf 01 00 f8 	call 1852 <putc>
    28f8:	1a 00 00 a8 	load_32 s0, (s26)
    28fc:	19 00 c0 c2 	cmpgt_f s0, s25, s0
    2900:	00 80 1d c1 	cmpne_i s0, s0, s27
    2904:	80 00 00 f4 	bnz s0, 16 <vprintf+0x674>
    2908:	18 00 00 12 	cmpgt_i s0, s24, 0
    290c:	18 ff ff 05 	add_i s24, s24, -1
    2910:	20 fe ff f5 	bnz s0, -60 <vprintf+0x634>
    2914:	7e 43 01 a8 	load_32 s27, 80(sp)
    2918:	1e f3 00 a8 	load_32 s24, 60(sp)
    291c:	3e e3 00 a8 	load_32 s25, 56(sp)
    2920:	5e d3 00 a8 	load_32 s26, 52(sp)
    2924:	7b 07 00 05 	add_i s27, s27, 1
    2928:	00 00 fc c0 	move s0, s24
    292c:	3b 00 00 a0 	load_u8 s1, (s27)
    2930:	e1 d0 ff f5 	bnz s1, -1508 <vprintf+0xac>
    2934:	fe b3 02 a8 	load_32 ra, 172(sp)
    2938:	7e c3 02 a8 	load_32 s27, 176(sp)
    293c:	5e d3 02 a8 	load_32 s26, 180(sp)
    2940:	3e e3 02 a8 	load_32 s25, 184(sp)
    2944:	1e f3 02 a8 	load_32 s24, 188(sp)
    2948:	de 03 03 05 	add_i sp, sp, 192
    294c:	1f 00 00 f0 	ret

0000000000002950 putchar:
    2950:	de 03 ff 05 	add_i sp, sp, -64
    2954:	fe f3 00 88 	store_32 ra, 60(sp)
    2958:	b6 01 00 f8 	call 1752 <putc>
    295c:	fe f3 00 a8 	load_32 ra, 60(sp)
    2960:	de 03 01 05 	add_i sp, sp, 64
    2964:	1f 00 00 f0 	ret

0000000000002968 puts:
    2968:	de 03 ff 05 	add_i sp, sp, -64
    296c:	1e f3 00 88 	store_32 s24, 60(sp)
    2970:	fe e3 00 88 	store_32 ra, 56(sp)
    2974:	00 03 f0 c0 	move s24, s0
    2978:	18 00 00 a0 	load_u8 s0, (s24)
    297c:	e0 00 00 f2 	bz s0, 28 <puts+0x30>
    2980:	00 00 d0 c1 	sext_8 s0, s0
    2984:	ab 01 00 f8 	call 1708 <putc>
    2988:	18 04 00 a0 	load_u8 s0, 1(s24)
    298c:	18 07 00 05 	add_i s24, s24, 1
    2990:	40 00 00 f2 	bz s0, 8 <puts+0x30>
    2994:	fb ff ff f7 	b -20 <puts+0x18>
    2998:	00 28 00 0f 	move s0, 10
    299c:	a5 01 00 f8 	call 1684 <putc>
    29a0:	fe e3 00 a8 	load_32 ra, 56(sp)
    29a4:	1e f3 00 a8 	load_32 s24, 60(sp)
    29a8:	de 03 01 05 	add_i sp, sp, 64
    29ac:	1f 00 00 f0 	ret

00000000000029b0 panic:
    29b0:	de 03 fe 05 	add_i sp, sp, -128
    29b4:	1e f3 01 88 	store_32 s24, 124(sp)
    29b8:	fe e3 01 88 	store_32 ra, 120(sp)
    29bc:	00 00 00 4f 	movehi s0, 0
    29c0:	1e 03 02 a8 	load_32 s24, 128(sp)
    29c4:	00 c4 0a 00 	or s0, s0, 689
    29c8:	1e 00 00 88 	store_32 s0, (sp)
    29cc:	2b fe ff f9 	call -1876 <kprintf>
    29d0:	3e 10 02 05 	add_i s1, sp, 132
    29d4:	3e d0 01 88 	store_32 s1, 116(sp)
    29d8:	00 00 fc c0 	move s0, s24
    29dc:	31 fe ff f9 	call -1852 <vprintf>
    29e0:	00 28 00 0f 	move s0, 10
    29e4:	93 01 00 f8 	call 1612 <putc>
    29e8:	18 fc ff 4f 	movehi s0, 524280
    29ec:	20 fc ff 0f 	move s1, -1
    29f0:	00 10 04 00 	or s0, s0, 260
    29f4:	20 00 00 88 	store_32 s1, (s0)
    29f8:	00 00 00 f6 	b 0 <panic+0x48>

00000000000029fc memset:
    29fc:	60 0c 00 01 	and s3, s0, 3
    2a00:	23 02 00 f4 	bnz s3, 68 <memset+0x48>
    2a04:	62 14 00 18 	cmplt_u s3, s2, 5
    2a08:	e3 01 00 f4 	bnz s3, 60 <memset+0x48>
    2a0c:	61 60 00 0b 	shl s3, s1, 24
    2a10:	81 fc 03 01 	and s4, s1, 255
    2a14:	63 00 02 c0 	or s3, s3, s4
    2a18:	a4 20 00 0b 	shl s5, s4, 8
    2a1c:	84 40 00 0b 	shl s4, s4, 16
    2a20:	63 80 02 c0 	or s3, s3, s5
    2a24:	83 00 02 c0 	or s4, s3, s4
    2a28:	60 00 f0 c0 	move s3, s0
    2a2c:	42 f0 ff 05 	add_i s2, s2, -4
    2a30:	83 00 00 88 	store_32 s4, (s3)
    2a34:	63 10 00 05 	add_i s3, s3, 4
    2a38:	a2 10 00 16 	cmpgt_u s5, s2, 4
    2a3c:	85 ff ff f5 	bnz s5, -16 <memset+0x30>
    2a40:	03 00 00 f6 	b 12 <memset+0x50>
    2a44:	60 00 f0 c0 	move s3, s0
    2a48:	c2 00 00 f2 	bz s2, 24 <memset+0x64>
    2a4c:	83 04 00 05 	add_i s4, s3, 1
    2a50:	23 00 00 82 	store_8 s1, (s3)
    2a54:	42 fc ff 05 	add_i s2, s2, -1
    2a58:	60 00 f2 c0 	move s3, s4
    2a5c:	82 ff ff f5 	bnz s2, -16 <memset+0x50>
    2a60:	1f 00 00 f0 	ret

0000000000002a64 memcpy:
    2a64:	22 01 00 f2 	bz s2, 36 <memcpy+0x24>
    2a68:	60 00 f0 c0 	move s3, s0
    2a6c:	a3 04 00 05 	add_i s5, s3, 1
    2a70:	81 00 00 a0 	load_u8 s4, (s1)
    2a74:	83 00 00 82 	store_8 s4, (s3)
    2a78:	42 fc ff 05 	add_i s2, s2, -1
    2a7c:	21 04 00 05 	add_i s1, s1, 1
    2a80:	60 80 f2 c0 	move s3, s5
    2a84:	42 ff ff f5 	bnz s2, -24 <memcpy+0x8>
    2a88:	1f 00 00 f0 	ret

0000000000002a8c strlcpy:
    2a8c:	61 00 00 a0 	load_u8 s3, (s1)
    2a90:	62 01 00 f2 	bz s2, 44 <strlcpy+0x30>
    2a94:	83 fc 03 01 	and s4, s3, 255
    2a98:	24 01 00 f2 	bz s4, 36 <strlcpy+0x30>
    2a9c:	60 00 00 82 	store_8 s3, (s0)
    2aa0:	42 fc ff 05 	add_i s2, s2, -1
    2aa4:	61 04 00 a0 	load_u8 s3, 1(s1)
    2aa8:	21 04 00 05 	add_i s1, s1, 1
    2aac:	00 04 00 05 	add_i s0, s0, 1
    2ab0:	62 00 00 f2 	bz s2, 12 <strlcpy+0x30>
    2ab4:	83 fc 03 01 	and s4, s3, 255
    2ab8:	24 ff ff f5 	bnz s4, -28 <strlcpy+0x10>
    2abc:	20 80 60 c0 	sub_i s1, s0, s1
    2ac0:	40 00 00 0f 	move s2, 0
    2ac4:	40 00 00 82 	store_8 s2, (s0)
    2ac8:	00 80 f0 c0 	move s0, s1
    2acc:	1f 00 00 f0 	ret

0000000000002ad0 memcmp:
    2ad0:	80 00 00 0f 	move s4, 0
    2ad4:	42 01 00 f2 	bz s2, 40 <memcmp+0x2c>
    2ad8:	60 00 00 a2 	load_s8 s3, (s0)
    2adc:	00 04 00 05 	add_i s0, s0, 1
    2ae0:	a1 00 00 a2 	load_s8 s5, (s1)
    2ae4:	21 04 00 05 	add_i s1, s1, 1
    2ae8:	42 fc ff 05 	add_i s2, s2, -1
    2aec:	63 80 62 c0 	sub_i s3, s3, s5
    2af0:	23 ff ff f3 	bz s3, -28 <memcmp+0x4>
    2af4:	00 80 f1 c0 	move s0, s3
    2af8:	1f 00 00 f0 	ret
    2afc:	60 00 f2 c0 	move s3, s4
    2b00:	00 80 f1 c0 	move s0, s3
    2b04:	1f 00 00 f0 	ret

0000000000002b08 init_rwlock:
    2b08:	20 00 00 0f 	move s1, 0
    2b0c:	20 10 00 88 	store_32 s1, 4(s0)
    2b10:	20 20 00 88 	store_32 s1, 8(s0)
    2b14:	20 30 00 05 	add_i s1, s0, 12
    2b18:	20 40 00 88 	store_32 s1, 16(s0)
    2b1c:	20 30 00 88 	store_32 s1, 12(s0)
    2b20:	20 50 00 05 	add_i s1, s0, 20
    2b24:	20 60 00 88 	store_32 s1, 24(s0)
    2b28:	20 50 00 88 	store_32 s1, 20(s0)
    2b2c:	1f 00 00 f0 	ret

0000000000002b30 rwlock_lock_read:
    2b30:	de 03 fe 05 	add_i sp, sp, -128
    2b34:	1e f3 01 88 	store_32 s24, 124(sp)
    2b38:	3e e3 01 88 	store_32 s25, 120(sp)
    2b3c:	5e d3 01 88 	store_32 s26, 116(sp)
    2b40:	7e c3 01 88 	store_32 s27, 112(sp)
    2b44:	fe b3 01 88 	store_32 ra, 108(sp)
    2b48:	00 03 f0 c0 	move s24, s0
    2b4c:	e1 01 00 f8 	call 1924 <disable_interrupts>
    2b50:	40 00 f0 c0 	move s2, s0
    2b54:	60 07 00 0f 	move s27, 1
    2b58:	40 03 00 0f 	move s26, 0
    2b5c:	18 00 00 a8 	load_32 s0, (s24)
    2b60:	e0 ff ff f5 	bnz s0, -4 <rwlock_lock_read+0x2c>
    2b64:	18 00 00 aa 	load_sync s0, (s24)
    2b68:	20 00 1d c1 	cmpne_i s1, s0, s26
    2b6c:	81 00 00 f4 	bnz s1, 16 <rwlock_lock_read+0x4c>
    2b70:	20 80 fd c0 	move s1, s27
    2b74:	38 00 00 8a 	store_sync s1, (s24)  
    2b78:	61 ff ff f3 	bz s1, -20 <rwlock_lock_read+0x34>
    2b7c:	00 00 00 10 	cmpeq_i s0, s0, 0
    2b80:	00 04 00 01 	and s0, s0, 1
    2b84:	c0 fe ff f3 	bz s0, -40 <rwlock_lock_read+0x2c>
    2b88:	18 60 00 a8 	load_32 s0, 24(s24)
    2b8c:	38 50 00 05 	add_i s1, s24, 20
    2b90:	00 80 10 c1 	cmpne_i s0, s0, s1
    2b94:	60 00 00 f4 	bnz s0, 12 <rwlock_lock_read+0x70>
    2b98:	18 10 00 a8 	load_32 s0, 4(s24)
    2b9c:	20 05 00 f2 	bz s0, 164 <rwlock_lock_read+0x110>
    2ba0:	38 33 00 05 	add_i s25, s24, 12
    2ba4:	5e a0 01 88 	store_32 s2, 104(sp)
    2ba8:	16 05 00 f8 	call 5208 <current_thread>
    2bac:	38 30 00 a8 	load_32 s1, 12(s24)
    2bb0:	20 00 00 88 	store_32 s1, (s0)
    2bb4:	20 13 00 88 	store_32 s25, 4(s0)
    2bb8:	01 10 00 88 	store_32 s0, 4(s1)
    2bbc:	20 10 00 a8 	load_32 s1, 4(s0)
    2bc0:	01 00 00 88 	store_32 s0, (s1)
    2bc4:	0f 05 00 f8 	call 5180 <current_thread>
    2bc8:	20 08 00 0f 	move s1, 2
    2bcc:	20 c0 00 88 	store_32 s1, 48(s0)
    2bd0:	58 03 00 88 	store_32 s26, (s24)
    2bd4:	00 00 00 e8 	membar
    2bd8:	57 06 00 f8 	call 6492 <reschedule>
    2bdc:	5e a0 01 a8 	load_32 s2, 104(sp)
    2be0:	18 00 00 a8 	load_32 s0, (s24)
    2be4:	e0 ff ff f5 	bnz s0, -4 <rwlock_lock_read+0xb0>
    2be8:	18 00 00 aa 	load_sync s0, (s24)
    2bec:	20 00 1d c1 	cmpne_i s1, s0, s26
    2bf0:	81 00 00 f4 	bnz s1, 16 <rwlock_lock_read+0xd0>
    2bf4:	20 80 fd c0 	move s1, s27
    2bf8:	38 00 00 8a 	store_sync s1, (s24)  
    2bfc:	61 ff ff f3 	bz s1, -20 <rwlock_lock_read+0xb8>
    2c00:	40 00 00 f2 	bz s0, 8 <rwlock_lock_read+0xd8>
    2c04:	f7 ff ff f7 	b -36 <rwlock_lock_read+0xb0>
    2c08:	18 10 00 a8 	load_32 s0, 4(s24)
    2c0c:	40 00 00 f2 	bz s0, 8 <rwlock_lock_read+0xe4>
    2c10:	11 00 00 f6 	b 68 <rwlock_lock_read+0x124>
    2c14:	58 03 00 88 	store_32 s26, (s24)
    2c18:	00 00 00 e8 	membar
    2c1c:	00 00 f1 c0 	move s0, s2
    2c20:	b4 01 00 f8 	call 1744 <restore_interrupts>
    2c24:	fe b3 01 a8 	load_32 ra, 108(sp)
    2c28:	7e c3 01 a8 	load_32 s27, 112(sp)
    2c2c:	5e d3 01 a8 	load_32 s26, 116(sp)
    2c30:	3e e3 01 a8 	load_32 s25, 120(sp)
    2c34:	1e f3 01 a8 	load_32 s24, 124(sp)
    2c38:	de 03 02 05 	add_i sp, sp, 128
    2c3c:	1f 00 00 f0 	ret
    2c40:	18 20 00 a8 	load_32 s0, 8(s24)
    2c44:	00 04 00 05 	add_i s0, s0, 1
    2c48:	18 20 00 88 	store_32 s0, 8(s24)
    2c4c:	18 10 00 a8 	load_32 s0, 4(s24)
    2c50:	20 fe ff f3 	bz s0, -60 <rwlock_lock_read+0xe4>
    2c54:	00 00 00 4f 	movehi s0, 0
    2c58:	20 f4 00 0f 	move s1, 61
    2c5c:	3e 20 00 88 	store_32 s1, 8(sp)
    2c60:	20 00 00 4f 	movehi s1, 0
    2c64:	00 64 21 00 	or s0, s0, 2137
    2c68:	1e 30 00 88 	store_32 s0, 12(sp)
    2c6c:	00 00 00 4f 	movehi s0, 0
    2c70:	21 2c 1b 00 	or s1, s1, 1739
    2c74:	3e 10 00 88 	store_32 s1, 4(sp)
    2c78:	00 7c 15 00 	or s0, s0, 1375
    2c7c:	1e 00 00 88 	store_32 s0, (sp)
    2c80:	4c ff ff f9 	call -720 <panic>

0000000000002c84 rwlock_unlock_read:
    2c84:	de 03 fe 05 	add_i sp, sp, -128
    2c88:	1e f3 01 88 	store_32 s24, 124(sp)
    2c8c:	3e e3 01 88 	store_32 s25, 120(sp)
    2c90:	5e d3 01 88 	store_32 s26, 116(sp)
    2c94:	fe c3 01 88 	store_32 ra, 112(sp)
    2c98:	00 03 f0 c0 	move s24, s0
    2c9c:	8d 01 00 f8 	call 1588 <disable_interrupts>
    2ca0:	20 03 f0 c0 	move s25, s0
    2ca4:	20 04 00 0f 	move s1, 1
    2ca8:	40 03 00 0f 	move s26, 0
    2cac:	18 00 00 a8 	load_32 s0, (s24)
    2cb0:	e0 ff ff f5 	bnz s0, -4 <rwlock_unlock_read+0x28>
    2cb4:	18 00 00 aa 	load_sync s0, (s24)
    2cb8:	40 00 1d c1 	cmpne_i s2, s0, s26
    2cbc:	82 00 00 f4 	bnz s2, 16 <rwlock_unlock_read+0x48>
    2cc0:	40 80 f0 c0 	move s2, s1
    2cc4:	58 00 00 8a 	store_sync s2, (s24)  
    2cc8:	62 ff ff f3 	bz s2, -20 <rwlock_unlock_read+0x30>
    2ccc:	00 00 00 10 	cmpeq_i s0, s0, 0
    2cd0:	00 04 00 01 	and s0, s0, 1
    2cd4:	c0 fe ff f3 	bz s0, -40 <rwlock_unlock_read+0x28>
    2cd8:	18 10 00 a8 	load_32 s0, 4(s24)
    2cdc:	40 00 00 f2 	bz s0, 8 <rwlock_unlock_read+0x60>
    2ce0:	1e 00 00 f6 	b 120 <rwlock_unlock_read+0xd4>
    2ce4:	18 20 00 a8 	load_32 s0, 8(s24)
    2ce8:	00 00 00 12 	cmpgt_i s0, s0, 0
    2cec:	40 00 00 f4 	bnz s0, 8 <rwlock_unlock_read+0x70>
    2cf0:	1f 00 00 f6 	b 124 <rwlock_unlock_read+0xe8>
    2cf4:	18 20 00 a8 	load_32 s0, 8(s24)
    2cf8:	00 fc ff 05 	add_i s0, s0, -1
    2cfc:	18 20 00 88 	store_32 s0, 8(s24)
    2d00:	80 01 00 f4 	bnz s0, 48 <rwlock_unlock_read+0xac>
    2d04:	18 60 00 a8 	load_32 s0, 24(s24)
    2d08:	58 50 00 05 	add_i s2, s24, 20
    2d0c:	40 00 01 c1 	cmpeq_i s2, s0, s2
    2d10:	02 01 00 f4 	bnz s2, 32 <rwlock_unlock_read+0xac>
    2d14:	38 10 00 88 	store_32 s1, 4(s24)
    2d18:	20 10 00 a8 	load_32 s1, 4(s0)
    2d1c:	40 00 00 a8 	load_32 s2, (s0)
    2d20:	22 10 00 88 	store_32 s1, 4(s2)
    2d24:	20 10 00 a8 	load_32 s1, 4(s0)
    2d28:	41 00 00 88 	store_32 s2, (s1)
    2d2c:	61 07 00 f8 	call 7556 <make_thread_ready>
    2d30:	58 03 00 88 	store_32 s26, (s24)
    2d34:	00 00 00 e8 	membar
    2d38:	00 80 fc c0 	move s0, s25
    2d3c:	6d 01 00 f8 	call 1460 <restore_interrupts>
    2d40:	fe c3 01 a8 	load_32 ra, 112(sp)
    2d44:	5e d3 01 a8 	load_32 s26, 116(sp)
    2d48:	3e e3 01 a8 	load_32 s25, 120(sp)
    2d4c:	1e f3 01 a8 	load_32 s24, 124(sp)
    2d50:	de 03 02 05 	add_i sp, sp, 128
    2d54:	1f 00 00 f0 	ret
    2d58:	00 00 00 4f 	movehi s0, 0
    2d5c:	20 1c 01 0f 	move s1, 71
    2d60:	3e 20 00 88 	store_32 s1, 8(sp)
    2d64:	00 64 21 00 	or s0, s0, 2137
    2d68:	05 00 00 f6 	b 20 <rwlock_unlock_read+0xf8>
    2d6c:	00 00 00 4f 	movehi s0, 0
    2d70:	20 20 01 0f 	move s1, 72
    2d74:	3e 20 00 88 	store_32 s1, 8(sp)
    2d78:	00 50 03 00 	or s0, s0, 212
    2d7c:	20 00 00 4f 	movehi s1, 0
    2d80:	1e 30 00 88 	store_32 s0, 12(sp)
    2d84:	00 00 00 4f 	movehi s0, 0
    2d88:	21 2c 1b 00 	or s1, s1, 1739
    2d8c:	3e 10 00 88 	store_32 s1, 4(sp)
    2d90:	00 7c 15 00 	or s0, s0, 1375
    2d94:	1e 00 00 88 	store_32 s0, (sp)
    2d98:	06 ff ff f9 	call -1000 <panic>

0000000000002d9c rwlock_lock_write:
    2d9c:	de 03 fe 05 	add_i sp, sp, -128
    2da0:	1e f3 01 88 	store_32 s24, 124(sp)
    2da4:	3e e3 01 88 	store_32 s25, 120(sp)
    2da8:	5e d3 01 88 	store_32 s26, 116(sp)
    2dac:	7e c3 01 88 	store_32 s27, 112(sp)
    2db0:	fe b3 01 88 	store_32 ra, 108(sp)
    2db4:	00 03 f0 c0 	move s24, s0
    2db8:	46 01 00 f8 	call 1304 <disable_interrupts>
    2dbc:	40 00 f0 c0 	move s2, s0
    2dc0:	40 07 00 0f 	move s26, 1
    2dc4:	60 03 00 0f 	move s27, 0
    2dc8:	18 00 00 a8 	load_32 s0, (s24)
    2dcc:	e0 ff ff f5 	bnz s0, -4 <rwlock_lock_write+0x2c>
    2dd0:	18 00 00 aa 	load_sync s0, (s24)
    2dd4:	20 80 1d c1 	cmpne_i s1, s0, s27
    2dd8:	81 00 00 f4 	bnz s1, 16 <rwlock_lock_write+0x4c>
    2ddc:	20 00 fd c0 	move s1, s26
    2de0:	38 00 00 8a 	store_sync s1, (s24)  
    2de4:	61 ff ff f3 	bz s1, -20 <rwlock_lock_write+0x34>
    2de8:	00 00 00 10 	cmpeq_i s0, s0, 0
    2dec:	00 04 00 01 	and s0, s0, 1
    2df0:	c0 fe ff f3 	bz s0, -40 <rwlock_lock_write+0x2c>
    2df4:	18 20 00 a8 	load_32 s0, 8(s24)
    2df8:	00 00 00 12 	cmpgt_i s0, s0, 0
    2dfc:	60 00 00 f4 	bnz s0, 12 <rwlock_lock_write+0x6c>
    2e00:	18 10 00 a8 	load_32 s0, 4(s24)
    2e04:	80 03 00 f2 	bz s0, 112 <rwlock_lock_write+0xd8>
    2e08:	38 53 00 05 	add_i s25, s24, 20
    2e0c:	5e a0 01 88 	store_32 s2, 104(sp)
    2e10:	7c 04 00 f8 	call 4592 <current_thread>
    2e14:	38 50 00 a8 	load_32 s1, 20(s24)
    2e18:	20 00 00 88 	store_32 s1, (s0)
    2e1c:	20 13 00 88 	store_32 s25, 4(s0)
    2e20:	01 10 00 88 	store_32 s0, 4(s1)
    2e24:	20 10 00 a8 	load_32 s1, 4(s0)
    2e28:	01 00 00 88 	store_32 s0, (s1)
    2e2c:	75 04 00 f8 	call 4564 <current_thread>
    2e30:	20 08 00 0f 	move s1, 2
    2e34:	20 c0 00 88 	store_32 s1, 48(s0)
    2e38:	78 03 00 88 	store_32 s27, (s24)
    2e3c:	00 00 00 e8 	membar
    2e40:	bd 05 00 f8 	call 5876 <reschedule>
    2e44:	5e a0 01 a8 	load_32 s2, 104(sp)
    2e48:	18 00 00 a8 	load_32 s0, (s24)
    2e4c:	e0 ff ff f5 	bnz s0, -4 <rwlock_lock_write+0xac>
    2e50:	18 00 00 aa 	load_sync s0, (s24)
    2e54:	20 80 1d c1 	cmpne_i s1, s0, s27
    2e58:	81 00 00 f4 	bnz s1, 16 <rwlock_lock_write+0xcc>
    2e5c:	20 00 fd c0 	move s1, s26
    2e60:	38 00 00 8a 	store_sync s1, (s24)  
    2e64:	61 ff ff f3 	bz s1, -20 <rwlock_lock_write+0xb4>
    2e68:	00 00 00 10 	cmpeq_i s0, s0, 0
    2e6c:	00 04 00 01 	and s0, s0, 1
    2e70:	c0 fe ff f3 	bz s0, -40 <rwlock_lock_write+0xac>
    2e74:	18 20 00 a8 	load_32 s0, 8(s24)
    2e78:	40 00 00 f2 	bz s0, 8 <rwlock_lock_write+0xe4>
    2e7c:	0d 00 00 f6 	b 52 <rwlock_lock_write+0x114>
    2e80:	58 13 00 88 	store_32 s26, 4(s24)
    2e84:	78 03 00 88 	store_32 s27, (s24)
    2e88:	00 00 00 e8 	membar
    2e8c:	00 00 f1 c0 	move s0, s2
    2e90:	18 01 00 f8 	call 1120 <restore_interrupts>
    2e94:	fe b3 01 a8 	load_32 ra, 108(sp)
    2e98:	7e c3 01 a8 	load_32 s27, 112(sp)
    2e9c:	5e d3 01 a8 	load_32 s26, 116(sp)
    2ea0:	3e e3 01 a8 	load_32 s25, 120(sp)
    2ea4:	1e f3 01 a8 	load_32 s24, 124(sp)
    2ea8:	de 03 02 05 	add_i sp, sp, 128
    2eac:	1f 00 00 f0 	ret
    2eb0:	00 00 00 4f 	movehi s0, 0
    2eb4:	20 84 01 0f 	move s1, 97
    2eb8:	3e 20 00 88 	store_32 s1, 8(sp)
    2ebc:	20 00 00 4f 	movehi s1, 0
    2ec0:	00 cc 24 00 	or s0, s0, 2355
    2ec4:	1e 30 00 88 	store_32 s0, 12(sp)
    2ec8:	00 00 00 4f 	movehi s0, 0
    2ecc:	21 2c 1b 00 	or s1, s1, 1739
    2ed0:	3e 10 00 88 	store_32 s1, 4(sp)
    2ed4:	00 7c 15 00 	or s0, s0, 1375
    2ed8:	1e 00 00 88 	store_32 s0, (sp)
    2edc:	b5 fe ff f9 	call -1324 <panic>

0000000000002ee0 rwlock_unlock_write:
    2ee0:	de 03 fe 05 	add_i sp, sp, -128
    2ee4:	1e f3 01 88 	store_32 s24, 124(sp)
    2ee8:	3e e3 01 88 	store_32 s25, 120(sp)
    2eec:	5e d3 01 88 	store_32 s26, 116(sp)
    2ef0:	7e c3 01 88 	store_32 s27, 112(sp)
    2ef4:	fe b3 01 88 	store_32 ra, 108(sp)
    2ef8:	00 03 f0 c0 	move s24, s0
    2efc:	f5 00 00 f8 	call 980 <disable_interrupts>
    2f00:	20 03 f0 c0 	move s25, s0
    2f04:	00 04 00 0f 	move s0, 1
    2f08:	40 03 00 0f 	move s26, 0
    2f0c:	38 00 00 a8 	load_32 s1, (s24)
    2f10:	e1 ff ff f5 	bnz s1, -4 <rwlock_unlock_write+0x2c>
    2f14:	38 00 00 aa 	load_sync s1, (s24)
    2f18:	41 00 1d c1 	cmpne_i s2, s1, s26
    2f1c:	82 00 00 f4 	bnz s2, 16 <rwlock_unlock_write+0x4c>
    2f20:	40 00 f0 c0 	move s2, s0
    2f24:	58 00 00 8a 	store_sync s2, (s24)  
    2f28:	62 ff ff f3 	bz s2, -20 <rwlock_unlock_write+0x34>
    2f2c:	21 00 00 10 	cmpeq_i s1, s1, 0
    2f30:	21 04 00 01 	and s1, s1, 1
    2f34:	c1 fe ff f3 	bz s1, -40 <rwlock_unlock_write+0x2c>
    2f38:	18 10 00 a8 	load_32 s0, 4(s24)
    2f3c:	40 00 00 f4 	bnz s0, 8 <rwlock_unlock_write+0x64>
    2f40:	2b 00 00 f6 	b 172 <rwlock_unlock_write+0x10c>
    2f44:	18 20 00 a8 	load_32 s0, 8(s24)
    2f48:	40 00 00 f2 	bz s0, 8 <rwlock_unlock_write+0x70>
    2f4c:	2d 00 00 f6 	b 180 <rwlock_unlock_write+0x120>
    2f50:	18 40 00 a8 	load_32 s0, 16(s24)
    2f54:	78 33 00 05 	add_i s27, s24, 12
    2f58:	20 80 0d c1 	cmpeq_i s1, s0, s27
    2f5c:	e1 01 00 f4 	bnz s1, 60 <rwlock_unlock_write+0xb8>
    2f60:	20 10 00 a8 	load_32 s1, 4(s0)
    2f64:	40 00 00 a8 	load_32 s2, (s0)
    2f68:	22 10 00 88 	store_32 s1, 4(s2)
    2f6c:	20 10 00 a8 	load_32 s1, 4(s0)
    2f70:	41 00 00 88 	store_32 s2, (s1)
    2f74:	cf 06 00 f8 	call 6972 <make_thread_ready>
    2f78:	18 20 00 a8 	load_32 s0, 8(s24)
    2f7c:	00 04 00 05 	add_i s0, s0, 1
    2f80:	18 20 00 88 	store_32 s0, 8(s24)
    2f84:	18 40 00 a8 	load_32 s0, 16(s24)
    2f88:	20 80 1d c1 	cmpne_i s1, s0, s27
    2f8c:	a1 fe ff f5 	bnz s1, -44 <rwlock_unlock_write+0x80>
    2f90:	58 13 00 88 	store_32 s26, 4(s24)
    2f94:	0b 00 00 f6 	b 44 <rwlock_unlock_write+0xe0>
    2f98:	18 60 00 a8 	load_32 s0, 24(s24)
    2f9c:	38 50 00 05 	add_i s1, s24, 20
    2fa0:	20 80 00 c1 	cmpeq_i s1, s0, s1
    2fa4:	61 ff ff f5 	bnz s1, -20 <rwlock_unlock_write+0xb0>
    2fa8:	20 10 00 a8 	load_32 s1, 4(s0)
    2fac:	40 00 00 a8 	load_32 s2, (s0)
    2fb0:	22 10 00 88 	store_32 s1, 4(s2)
    2fb4:	20 10 00 a8 	load_32 s1, 4(s0)
    2fb8:	41 00 00 88 	store_32 s2, (s1)
    2fbc:	bd 06 00 f8 	call 6900 <make_thread_ready>
    2fc0:	58 03 00 88 	store_32 s26, (s24)
    2fc4:	00 00 00 e8 	membar
    2fc8:	00 80 fc c0 	move s0, s25
    2fcc:	c9 00 00 f8 	call 804 <restore_interrupts>
    2fd0:	fe b3 01 a8 	load_32 ra, 108(sp)
    2fd4:	7e c3 01 a8 	load_32 s27, 112(sp)
    2fd8:	5e d3 01 a8 	load_32 s26, 116(sp)
    2fdc:	3e e3 01 a8 	load_32 s25, 120(sp)
    2fe0:	1e f3 01 a8 	load_32 s24, 124(sp)
    2fe4:	de 03 02 05 	add_i sp, sp, 128
    2fe8:	1f 00 00 f0 	ret
    2fec:	00 00 00 4f 	movehi s0, 0
    2ff0:	20 b0 01 0f 	move s1, 108
    2ff4:	3e 20 00 88 	store_32 s1, 8(sp)
    2ff8:	00 24 0e 00 	or s0, s0, 905
    2ffc:	05 00 00 f6 	b 20 <rwlock_unlock_write+0x130>
    3000:	00 00 00 4f 	movehi s0, 0
    3004:	20 b4 01 0f 	move s1, 109
    3008:	3e 20 00 88 	store_32 s1, 8(sp)
    300c:	00 cc 24 00 	or s0, s0, 2355
    3010:	20 00 00 4f 	movehi s1, 0
    3014:	1e 30 00 88 	store_32 s0, 12(sp)
    3018:	00 00 00 4f 	movehi s0, 0
    301c:	21 2c 1b 00 	or s1, s1, 1739
    3020:	3e 10 00 88 	store_32 s1, 4(sp)
    3024:	00 7c 15 00 	or s0, s0, 1375
    3028:	1e 00 00 88 	store_32 s0, (sp)
    302c:	61 fe ff f9 	call -1660 <panic>

0000000000003030 putc:
    3030:	de 03 ff 05 	add_i sp, sp, -64
    3034:	1e f3 00 88 	store_32 s24, 60(sp)
    3038:	fe e3 00 88 	store_32 ra, 56(sp)
    303c:	00 03 f0 c0 	move s24, s0
    3040:	a4 00 00 f8 	call 656 <disable_interrupts>
    3044:	24 00 00 4f 	movehi s1, 4
    3048:	60 04 00 0f 	move s3, 1
    304c:	40 00 00 0f 	move s2, 0
    3050:	21 10 49 00 	or s1, s1, 4676
    3054:	81 00 00 a8 	load_32 s4, (s1)
    3058:	e4 ff ff f5 	bnz s4, -4 <putc+0x24>
    305c:	81 00 00 aa 	load_sync s4, (s1)
    3060:	a4 00 11 c1 	cmpne_i s5, s4, s2
    3064:	85 00 00 f4 	bnz s5, 16 <putc+0x44>
    3068:	a0 80 f1 c0 	move s5, s3
    306c:	a1 00 00 8a 	store_sync s5, (s1)  
    3070:	65 ff ff f3 	bz s5, -20 <putc+0x2c>
    3074:	84 00 00 10 	cmpeq_i s4, s4, 0
    3078:	84 04 00 01 	and s4, s4, 1
    307c:	c4 fe ff f3 	bz s4, -40 <putc+0x24>
    3080:	78 fc ff 4f 	movehi s3, 524280
    3084:	83 00 01 00 	or s4, s3, 64
    3088:	a4 00 00 a8 	load_32 s5, (s4)
    308c:	a5 04 00 01 	and s5, s5, 1
    3090:	c5 ff ff f3 	bz s5, -8 <putc+0x58>
    3094:	63 20 01 00 	or s3, s3, 72
    3098:	03 03 00 88 	store_32 s24, (s3)
    309c:	41 00 00 88 	store_32 s2, (s1)
    30a0:	00 00 00 e8 	membar
    30a4:	93 00 00 f8 	call 588 <restore_interrupts>
    30a8:	fe e3 00 a8 	load_32 ra, 56(sp)
    30ac:	1e f3 00 a8 	load_32 s24, 60(sp)
    30b0:	de 03 01 05 	add_i sp, sp, 64
    30b4:	1f 00 00 f0 	ret

00000000000030b8 trap_entry:
    30b8:	0b 00 00 8c 	setcr s0, 11
    30bc:	2c 00 00 8c 	setcr s1, 12
    30c0:	08 00 00 ac 	getcr s0, 8
    30c4:	00 10 00 01 	and s0, s0, 4
    30c8:	60 01 00 f4 	bnz s0, 44 <is_supervisor>
    30cc:	00 00 00 ac 	getcr s0, 0
    30d0:	00 08 00 0b 	shl s0, s0, 2
    30d4:	21 00 00 4f 	movehi s1, 1
    30d8:	21 f0 48 00 	or s1, s1, 4668
    30dc:	21 00 00 a8 	load_32 s1, (s1)
    30e0:	21 00 50 c0 	add_i s1, s1, s0
    30e4:	21 00 00 a8 	load_32 s1, (s1)
    30e8:	c1 e3 fe 89 	store_32 sp, -72(s1)
    30ec:	c0 83 f0 c0 	move sp, s1
    30f0:	02 00 00 f6 	b 8 <save_frame>

00000000000030f4 is_supervisor:
    30f4:	de e3 fe 89 	store_32 sp, -72(sp)

00000000000030f8 save_frame:
    30f8:	0b 00 00 ac 	getcr s0, 11
    30fc:	2c 00 00 ac 	getcr s1, 12
    3100:	de 03 03 06 	sub_i sp, sp, 192
    3104:	1e 00 00 88 	store_32 s0, (sp)
    3108:	3e 10 00 88 	store_32 s1, 4(sp)
    310c:	5e 20 00 88 	store_32 s2, 8(sp)
    3110:	7e 30 00 88 	store_32 s3, 12(sp)
    3114:	9e 40 00 88 	store_32 s4, 16(sp)
    3118:	be 50 00 88 	store_32 s5, 20(sp)
    311c:	de 60 00 88 	store_32 s6, 24(sp)
    3120:	fe 70 00 88 	store_32 s7, 28(sp)
    3124:	1e 81 00 88 	store_32 s8, 32(sp)
    3128:	3e 91 00 88 	store_32 s9, 36(sp)
    312c:	5e a1 00 88 	store_32 s10, 40(sp)
    3130:	7e b1 00 88 	store_32 s11, 44(sp)
    3134:	9e c1 00 88 	store_32 s12, 48(sp)
    3138:	be d1 00 88 	store_32 s13, 52(sp)
    313c:	de e1 00 88 	store_32 s14, 56(sp)
    3140:	fe f1 00 88 	store_32 s15, 60(sp)
    3144:	1e 02 01 88 	store_32 s16, 64(sp)
    3148:	3e 12 01 88 	store_32 s17, 68(sp)
    314c:	5e 22 01 88 	store_32 s18, 72(sp)
    3150:	7e 32 01 88 	store_32 s19, 76(sp)
    3154:	9e 42 01 88 	store_32 s20, 80(sp)
    3158:	be 52 01 88 	store_32 s21, 84(sp)
    315c:	de 62 01 88 	store_32 s22, 88(sp)
    3160:	fe 72 01 88 	store_32 s23, 92(sp)
    3164:	1e 83 01 88 	store_32 s24, 96(sp)
    3168:	3e 93 01 88 	store_32 s25, 100(sp)
    316c:	5e a3 01 88 	store_32 s26, 104(sp)
    3170:	7e b3 01 88 	store_32 s27, 108(sp)
    3174:	9e c3 01 88 	store_32 gp, 112(sp)
    3178:	be d3 01 88 	store_32 fp, 116(sp)
    317c:	fe f3 01 88 	store_32 ra, 124(sp)
    3180:	02 00 00 ac 	getcr s0, 2
    3184:	1e 00 02 88 	store_32 s0, 128(sp)
    3188:	08 00 00 ac 	getcr s0, 8
    318c:	1e 10 02 88 	store_32 s0, 132(sp)
    3190:	0d 00 00 ac 	getcr s0, 13
    3194:	1e 20 02 88 	store_32 s0, 136(sp)
    3198:	00 00 ff c0 	move s0, sp
    319c:	78 00 00 f8 	call 480 <handle_trap>
    31a0:	3e 10 00 a8 	load_32 s1, 4(sp)
    31a4:	5e 20 00 a8 	load_32 s2, 8(sp)
    31a8:	7e 30 00 a8 	load_32 s3, 12(sp)
    31ac:	9e 40 00 a8 	load_32 s4, 16(sp)
    31b0:	be 50 00 a8 	load_32 s5, 20(sp)
    31b4:	de 60 00 a8 	load_32 s6, 24(sp)
    31b8:	fe 70 00 a8 	load_32 s7, 28(sp)
    31bc:	1e 81 00 a8 	load_32 s8, 32(sp)
    31c0:	3e 91 00 a8 	load_32 s9, 36(sp)
    31c4:	5e a1 00 a8 	load_32 s10, 40(sp)
    31c8:	7e b1 00 a8 	load_32 s11, 44(sp)
    31cc:	9e c1 00 a8 	load_32 s12, 48(sp)
    31d0:	be d1 00 a8 	load_32 s13, 52(sp)
    31d4:	de e1 00 a8 	load_32 s14, 56(sp)
    31d8:	fe f1 00 a8 	load_32 s15, 60(sp)
    31dc:	1e 02 01 a8 	load_32 s16, 64(sp)
    31e0:	3e 12 01 a8 	load_32 s17, 68(sp)
    31e4:	5e 22 01 a8 	load_32 s18, 72(sp)
    31e8:	7e 32 01 a8 	load_32 s19, 76(sp)
    31ec:	9e 42 01 a8 	load_32 s20, 80(sp)
    31f0:	be 52 01 a8 	load_32 s21, 84(sp)
    31f4:	de 62 01 a8 	load_32 s22, 88(sp)
    31f8:	fe 72 01 a8 	load_32 s23, 92(sp)
    31fc:	1e 83 01 a8 	load_32 s24, 96(sp)
    3200:	3e 93 01 a8 	load_32 s25, 100(sp)
    3204:	5e a3 01 a8 	load_32 s26, 104(sp)
    3208:	7e b3 01 a8 	load_32 s27, 108(sp)
    320c:	9e c3 01 a8 	load_32 gp, 112(sp)
    3210:	be d3 01 a8 	load_32 fp, 116(sp)
    3214:	fe f3 01 a8 	load_32 ra, 124(sp)
    3218:	1e 00 02 a8 	load_32 s0, 128(sp)
    321c:	02 00 00 8c 	setcr s0, 2
    3220:	1e 10 02 a8 	load_32 s0, 132(sp)
    3224:	08 00 00 8c 	setcr s0, 8
    3228:	1e 20 02 a8 	load_32 s0, 136(sp)
    322c:	0d 00 00 8c 	setcr s0, 13
    3230:	1e 00 00 a8 	load_32 s0, (sp)
    3234:	de e3 01 a8 	load_32 sp, 120(sp)
    3238:	00 00 00 fe 	eret

000000000000323c trap_kernel_stack_addr:
    323c:	c0 91 00 00 	or s14, s0, 36

0000000000003240 jump_to_user_mode:
    3240:	42 00 00 8c 	setcr s2, 2
    3244:	40 0d 00 0f 	move s10, 3
    3248:	48 01 00 8c 	setcr s10, 8
    324c:	c0 83 f1 c0 	move sp, s3
    3250:	00 00 00 fe 	eret

0000000000003254 tlb_miss_handler:
    3254:	0b 00 00 8c 	setcr s0, 11
    3258:	2c 00 00 8c 	setcr s1, 12
    325c:	2a 00 00 ac 	getcr s1, 10
    3260:	05 00 00 ac 	getcr s0, 5
    3264:	00 58 00 0a 	shr s0, s0, 22
    3268:	00 08 00 0b 	shl s0, s0, 2
    326c:	00 80 50 c0 	add_i s0, s0, s1
    3270:	00 00 00 a8 	load_32 s0, (s0)
    3274:	20 04 00 01 	and s1, s0, 1
    3278:	81 02 00 f2 	bz s1, 80 <pte_not_present>
    327c:	00 30 00 0a 	shr s0, s0, 12
    3280:	00 30 00 0b 	shl s0, s0, 12
    3284:	25 00 00 ac 	getcr s1, 5
    3288:	21 30 00 0a 	shr s1, s1, 12
    328c:	21 fc 0f 01 	and s1, s1, 1023
    3290:	21 08 00 0b 	shl s1, s1, 2
    3294:	21 00 50 c0 	add_i s1, s1, s0
    3298:	01 00 00 a8 	load_32 s0, (s1)

000000000000329c update_tlb:
    329c:	23 00 00 ac 	getcr s1, 3
    32a0:	21 80 00 01 	and s1, s1, 32
    32a4:	81 00 00 f2 	bz s1, 16 <fill_itlb>

00000000000032a8 fill_dltb:
    32a8:	25 00 00 ac 	getcr s1, 5
    32ac:	01 00 00 e0 	dtlbinsert s1, s0
    32b0:	03 00 00 f6 	b 12 <done>

00000000000032b4 fill_itlb:
    32b4:	25 00 00 ac 	getcr s1, 5
    32b8:	01 00 00 ee 	itlbinsert s1, s0

00000000000032bc done:
    32bc:	0b 00 00 ac 	getcr s0, 11
    32c0:	2c 00 00 ac 	getcr s1, 12
    32c4:	00 00 00 fe 	eret

00000000000032c8 pte_not_present:
    32c8:	00 00 00 0f 	move s0, 0
    32cc:	f4 ff ff f7 	b -48 <update_tlb>

00000000000032d0 disable_interrupts:
    32d0:	04 00 00 ac 	getcr s0, 4
    32d4:	20 18 00 01 	and s1, s0, 6
    32d8:	24 00 00 8c 	setcr s1, 4
    32dc:	1f 00 00 f0 	ret

00000000000032e0 enable_interrupts:
    32e0:	04 00 00 ac 	getcr s0, 4
    32e4:	20 04 00 00 	or s1, s0, 1
    32e8:	24 00 00 8c 	setcr s1, 4
    32ec:	1f 00 00 f0 	ret

00000000000032f0 restore_interrupts:
    32f0:	04 00 00 8c 	setcr s0, 4
    32f4:	1f 00 00 f0 	ret

00000000000032f8 unmask_interrupt:
    32f8:	24 00 00 4f 	movehi s1, 4
    32fc:	40 00 00 ac 	getcr s2, 0
    3300:	21 20 49 00 	or s1, s1, 4680
    3304:	42 08 00 0b 	shl s2, s2, 2
    3308:	21 00 51 c0 	add_i s1, s1, s2
    330c:	40 04 00 0f 	move s2, 1
    3310:	61 00 00 a8 	load_32 s3, (s1)
    3314:	02 00 b0 c0 	shl s0, s2, s0
    3318:	03 00 00 c0 	or s0, s3, s0
    331c:	01 00 00 88 	store_32 s0, (s1)
    3320:	0e 00 00 8c 	setcr s0, 14
    3324:	1f 00 00 f0 	ret

0000000000003328 register_interrupt_handler:
    3328:	44 00 00 4f 	movehi s2, 4
    332c:	60 08 00 0b 	shl s3, s0, 2
    3330:	42 20 4b 00 	or s2, s2, 4808
    3334:	42 80 51 c0 	add_i s2, s2, s3
    3338:	22 00 00 88 	store_32 s1, (s2)
    333c:	24 00 00 4f 	movehi s1, 4
    3340:	40 00 00 ac 	getcr s2, 0
    3344:	21 20 49 00 	or s1, s1, 4680
    3348:	42 08 00 0b 	shl s2, s2, 2
    334c:	21 00 51 c0 	add_i s1, s1, s2
    3350:	40 04 00 0f 	move s2, 1
    3354:	61 00 00 a8 	load_32 s3, (s1)
    3358:	02 00 b0 c0 	shl s0, s2, s0
    335c:	03 00 00 c0 	or s0, s3, s0
    3360:	01 00 00 88 	store_32 s0, (s1)
    3364:	0e 00 00 8c 	setcr s0, 14
    3368:	1f 00 00 f0 	ret

000000000000336c ack_interrupt:
    336c:	20 04 00 0f 	move s1, 1
    3370:	01 00 b0 c0 	shl s0, s1, s0
    3374:	0f 00 00 8c 	setcr s0, 15
    3378:	1f 00 00 f0 	ret

000000000000337c handle_trap:
    337c:	de 03 fe 05 	add_i sp, sp, -128
    3380:	1e f3 01 88 	store_32 s24, 124(sp)
    3384:	3e e3 01 88 	store_32 s25, 120(sp)
    3388:	5e d3 01 88 	store_32 s26, 116(sp)
    338c:	fe c3 01 88 	store_32 ra, 112(sp)
    3390:	43 03 00 ac 	getcr s26, 3
    3394:	00 03 f0 c0 	move s24, s0
    3398:	3a 3c 00 01 	and s1, s26, 15
    339c:	21 f4 ff 05 	add_i s1, s1, -3
    33a0:	41 14 00 16 	cmpgt_u s2, s1, 5
    33a4:	e2 09 00 f4 	bnz s2, 316 <handle_trap+0x164>
    33a8:	00 00 00 4f 	movehi s0, 0
    33ac:	21 08 00 0b 	shl s1, s1, 2
    33b0:	00 30 2e 00 	or s0, s0, 2956
    33b4:	01 00 50 c0 	add_i s0, s1, s0
    33b8:	00 00 00 a8 	load_32 s0, (s0)
    33bc:	00 00 00 f0 	b s0
    33c0:	25 03 00 ac 	getcr s25, 5
    33c4:	c7 ff ff f9 	call -228 <enable_interrupts>
    33c8:	1a 10 00 0a 	shr s0, s26, 4
    33cc:	20 04 00 01 	and s1, s0, 1
    33d0:	00 80 fc c0 	move s0, s25
    33d4:	e9 11 00 f8 	call 18340 <handle_page_fault>
    33d8:	40 06 00 f4 	bnz s0, 200 <handle_trap+0x124>
    33dc:	04 00 00 4f 	movehi s0, 4
    33e0:	20 00 00 ac 	getcr s1, 0
    33e4:	00 00 43 00 	or s0, s0, 4288
    33e8:	21 08 00 0b 	shl s1, s1, 2
    33ec:	20 80 50 c0 	add_i s1, s0, s1
    33f0:	21 00 00 a8 	load_32 s1, (s1)
    33f4:	61 07 00 f2 	bz s1, 236 <handle_trap+0x164>
    33f8:	20 00 00 ac 	getcr s1, 0
    33fc:	21 08 00 0b 	shl s1, s1, 2
    3400:	00 80 50 c0 	add_i s0, s0, s1
    3404:	00 00 00 a8 	load_32 s0, (s0)
    3408:	25 00 00 f6 	b 148 <handle_trap+0x120>
    340c:	04 00 00 4f 	movehi s0, 4
    3410:	20 00 00 ac 	getcr s1, 0
    3414:	00 20 49 00 	or s0, s0, 4680
    3418:	21 08 00 0b 	shl s1, s1, 2
    341c:	00 80 50 c0 	add_i s0, s0, s1
    3420:	30 00 00 ac 	getcr s1, 16
    3424:	00 00 00 a8 	load_32 s0, (s0)
    3428:	00 83 10 c0 	and s24, s0, s1
    342c:	d8 03 00 f2 	bz s24, 120 <handle_trap+0x128>
    3430:	04 00 00 4f 	movehi s0, 4
    3434:	40 07 00 0f 	move s26, 1
    3438:	20 23 4b 00 	or s25, s0, 4808
    343c:	00 00 ec c0 	ctz s0, s24
    3440:	20 08 00 0b 	shl s1, s0, 2
    3444:	39 80 50 c0 	add_i s1, s25, s1
    3448:	21 00 00 a8 	load_32 s1, (s1)
    344c:	41 00 00 f4 	bnz s1, 8 <handle_trap+0xd8>
    3450:	1b 00 00 f6 	b 108 <handle_trap+0x140>
    3454:	1a 00 b0 c0 	shl s0, s26, s0
    3458:	00 fc ff 03 	xor s0, s0, -1
    345c:	18 03 10 c0 	and s24, s24, s0
    3460:	21 00 00 fc 	call s1
    3464:	18 02 00 f2 	bz s24, 64 <handle_trap+0x128>
    3468:	f5 ff ff f7 	b -44 <handle_trap+0xc0>
    346c:	05 00 00 ac 	getcr s0, 5
    3470:	9c ff ff f9 	call -400 <enable_interrupts>
    3474:	18 00 00 a8 	load_32 s0, (s24)
    3478:	38 10 00 a8 	load_32 s1, 4(s24)
    347c:	58 20 00 a8 	load_32 s2, 8(s24)
    3480:	78 30 00 a8 	load_32 s3, 12(s24)
    3484:	98 40 00 a8 	load_32 s4, 16(s24)
    3488:	b8 50 00 a8 	load_32 s5, 20(s24)
    348c:	06 14 00 f8 	call 20504 <handle_syscall>
    3490:	18 00 00 88 	store_32 s0, (s24)
    3494:	18 00 02 a8 	load_32 s0, 128(s24)
    3498:	00 10 00 05 	add_i s0, s0, 4
    349c:	18 00 02 88 	store_32 s0, 128(s24)
    34a0:	8c ff ff f9 	call -464 <disable_interrupts>
    34a4:	fe c3 01 a8 	load_32 ra, 112(sp)
    34a8:	5e d3 01 a8 	load_32 s26, 116(sp)
    34ac:	3e e3 01 a8 	load_32 s25, 120(sp)
    34b0:	1e f3 01 a8 	load_32 s24, 124(sp)
    34b4:	de 03 02 05 	add_i sp, sp, 128
    34b8:	1f 00 00 f0 	ret
    34bc:	20 00 00 4f 	movehi s1, 0
    34c0:	1e 10 00 88 	store_32 s0, 4(sp)
    34c4:	01 b8 08 00 	or s0, s1, 558
    34c8:	1e 00 00 88 	store_32 s0, (sp)
    34cc:	6b fb ff f9 	call -4692 <kprintf>
    34d0:	00 00 00 4f 	movehi s0, 0
    34d4:	00 f8 0e 00 	or s0, s0, 958
    34d8:	1e 00 00 88 	store_32 s0, (sp)
    34dc:	35 fd ff f9 	call -2860 <panic>
    34e0:	00 00 fc c0 	move s0, s24
    34e4:	01 00 00 f8 	call 4 <bad_fault>

00000000000034e8 bad_fault:
    34e8:	de 03 fe 05 	add_i sp, sp, -128
    34ec:	1e f3 01 88 	store_32 s24, 124(sp)
    34f0:	3e e3 01 88 	store_32 s25, 120(sp)
    34f4:	fe d3 01 88 	store_32 ra, 116(sp)
    34f8:	00 03 f0 c0 	move s24, s0
    34fc:	18 10 02 a8 	load_32 s0, 132(s24)
    3500:	20 13 00 01 	and s25, s0, 4
    3504:	bf 02 00 f8 	call 2812 <current_thread>
    3508:	00 40 00 a8 	load_32 s0, 16(s0)
    350c:	59 00 00 f2 	bz s25, 8 <bad_fault+0x2c>
    3510:	0a 00 00 f6 	b 40 <bad_fault+0x50>
    3514:	20 00 00 4f 	movehi s1, 0
    3518:	1e 10 00 88 	store_32 s0, 4(sp)
    351c:	01 f8 03 00 	or s0, s1, 254
    3520:	1e 00 00 88 	store_32 s0, (sp)
    3524:	55 fb ff f9 	call -4780 <kprintf>
    3528:	00 00 fc c0 	move s0, s24
    352c:	0e 00 00 f8 	call 56 <dump_interrupt_frame>
    3530:	00 04 00 0f 	move s0, 1
    3534:	35 05 00 f8 	call 5332 <thread_exit>
    3538:	20 00 00 4f 	movehi s1, 0
    353c:	1e 10 00 88 	store_32 s0, 4(sp)
    3540:	01 88 19 00 	or s0, s1, 1634
    3544:	1e 00 00 88 	store_32 s0, (sp)
    3548:	4c fb ff f9 	call -4816 <kprintf>
    354c:	00 00 fc c0 	move s0, s24
    3550:	05 00 00 f8 	call 20 <dump_interrupt_frame>
    3554:	00 00 00 4f 	movehi s0, 0
    3558:	00 18 06 00 	or s0, s0, 390
    355c:	1e 00 00 88 	store_32 s0, (sp)
    3560:	14 fd ff f9 	call -2992 <panic>

0000000000003564 dump_interrupt_frame:
    3564:	de 03 fe 05 	add_i sp, sp, -128
    3568:	1e f3 01 88 	store_32 s24, 124(sp)
    356c:	3e e3 01 88 	store_32 s25, 120(sp)
    3570:	5e d3 01 88 	store_32 s26, 116(sp)
    3574:	7e c3 01 88 	store_32 s27, 112(sp)
    3578:	fe b3 01 88 	store_32 ra, 108(sp)
    357c:	43 03 00 ac 	getcr s26, 3
    3580:	1e a0 01 88 	store_32 s0, 104(sp)
    3584:	25 03 00 ac 	getcr s25, 5
    3588:	1a 3f 00 01 	and s24, s26, 15
    358c:	18 28 00 16 	cmpgt_u s0, s24, 10
    3590:	c0 03 00 f4 	bnz s0, 120 <dump_interrupt_frame+0xa4>
    3594:	00 00 00 4f 	movehi s0, 0
    3598:	38 08 00 0b 	shl s1, s24, 2
    359c:	00 90 2e 00 	or s0, s0, 2980
    35a0:	00 80 50 c0 	add_i s0, s0, s1
    35a4:	20 00 00 4f 	movehi s1, 0
    35a8:	00 00 00 a8 	load_32 s0, (s0)
    35ac:	21 34 25 00 	or s1, s1, 2381
    35b0:	3e 00 00 88 	store_32 s1, (sp)
    35b4:	1e 10 00 88 	store_32 s0, 4(sp)
    35b8:	30 fb ff f9 	call -4928 <kprintf>
    35bc:	18 24 00 16 	cmpgt_u s0, s24, 9
    35c0:	a0 04 00 f4 	bnz s0, 148 <dump_interrupt_frame+0xf0>
    35c4:	00 04 00 0f 	move s0, 1
    35c8:	00 00 bc c0 	shl s0, s0, s24
    35cc:	00 80 0b 01 	and s0, s0, 736
    35d0:	40 00 00 f4 	bnz s0, 8 <dump_interrupt_frame+0x74>
    35d4:	20 00 00 f6 	b 128 <dump_interrupt_frame+0xf0>
    35d8:	1a 80 00 01 	and s0, s26, 32
    35dc:	00 00 00 10 	cmpeq_i s0, s0, 0
    35e0:	e0 01 00 f4 	bnz s0, 60 <dump_interrupt_frame+0xb8>
    35e4:	00 00 00 4f 	movehi s0, 0
    35e8:	00 94 20 00 	or s0, s0, 2085
    35ec:	3a 40 00 01 	and s1, s26, 16
    35f0:	21 00 00 10 	cmpeq_i s1, s1, 0
    35f4:	41 00 00 f4 	bnz s1, 8 <dump_interrupt_frame+0x98>
    35f8:	0e 00 00 f6 	b 56 <dump_interrupt_frame+0xcc>
    35fc:	20 00 00 4f 	movehi s1, 0
    3600:	21 c0 1d 00 	or s1, s1, 1904
    3604:	0d 00 00 f6 	b 52 <dump_interrupt_frame+0xd4>
    3608:	00 00 00 4f 	movehi s0, 0
    360c:	5e 13 00 88 	store_32 s26, 4(sp)
    3610:	00 1c 23 00 	or s0, s0, 2247
    3614:	1e 00 00 88 	store_32 s0, (sp)
    3618:	0e 00 00 f6 	b 56 <dump_interrupt_frame+0xec>
    361c:	00 00 00 4f 	movehi s0, 0
    3620:	00 b4 03 00 	or s0, s0, 237
    3624:	3a 40 00 01 	and s1, s26, 16
    3628:	21 00 00 10 	cmpeq_i s1, s1, 0
    362c:	81 fe ff f5 	bnz s1, -48 <dump_interrupt_frame+0x98>
    3630:	20 00 00 4f 	movehi s1, 0
    3634:	21 e4 15 00 	or s1, s1, 1401
    3638:	40 00 00 4f 	movehi s2, 0
    363c:	3e 13 00 88 	store_32 s25, 4(sp)
    3640:	42 d0 18 00 	or s2, s2, 1588
    3644:	5e 00 00 88 	store_32 s2, (sp)
    3648:	3e 30 00 88 	store_32 s1, 12(sp)
    364c:	1e 20 00 88 	store_32 s0, 8(sp)
    3650:	0a fb ff f9 	call -5080 <kprintf>
    3654:	00 00 00 4f 	movehi s0, 0
    3658:	00 80 23 00 	or s0, s0, 2272
    365c:	1e 00 00 88 	store_32 s0, (sp)
    3660:	06 fb ff f9 	call -5096 <kprintf>
    3664:	00 00 00 4f 	movehi s0, 0
    3668:	20 00 00 4f 	movehi s1, 0
    366c:	40 00 00 4f 	movehi s2, 0
    3670:	20 03 00 0f 	move s25, 0
    3674:	40 a7 07 00 	or s26, s0, 489
    3678:	61 a3 1c 00 	or s27, s1, 1832
    367c:	02 07 19 00 	or s24, s2, 1601
    3680:	19 24 00 16 	cmpgt_u s0, s25, 9
    3684:	60 00 00 f4 	bnz s0, 12 <dump_interrupt_frame+0x12c>
    3688:	5e 03 00 88 	store_32 s26, (sp)
    368c:	fb fa ff f9 	call -5140 <kprintf>
    3690:	3e a0 01 a8 	load_32 s1, 104(sp)
    3694:	19 08 00 0b 	shl s0, s25, 2
    3698:	01 00 50 c0 	add_i s0, s1, s0
    369c:	00 00 00 a8 	load_32 s0, (s0)
    36a0:	1e 20 00 88 	store_32 s0, 8(sp)
    36a4:	3e 13 00 88 	store_32 s25, 4(sp)
    36a8:	7e 03 00 88 	store_32 s27, (sp)
    36ac:	f3 fa ff f9 	call -5172 <kprintf>
    36b0:	19 1c 00 01 	and s0, s25, 7
    36b4:	00 1c 00 11 	cmpne_i s0, s0, 7
    36b8:	60 00 00 f4 	bnz s0, 12 <dump_interrupt_frame+0x160>
    36bc:	1e 03 00 88 	store_32 s24, (sp)
    36c0:	ee fa ff f9 	call -5192 <kprintf>
    36c4:	39 07 00 05 	add_i s25, s25, 1
    36c8:	19 80 00 18 	cmplt_u s0, s25, 32
    36cc:	a0 fd ff f5 	bnz s0, -76 <dump_interrupt_frame+0x11c>
    36d0:	1e a3 01 a8 	load_32 s24, 104(sp)
    36d4:	20 00 00 4f 	movehi s1, 0
    36d8:	18 00 02 a8 	load_32 s0, 128(s24)
    36dc:	1e 10 00 88 	store_32 s0, 4(sp)
    36e0:	01 a8 21 00 	or s0, s1, 2154
    36e4:	1e 00 00 88 	store_32 s0, (sp)
    36e8:	e4 fa ff f9 	call -5232 <kprintf>
    36ec:	00 00 00 4f 	movehi s0, 0
    36f0:	00 0c 19 00 	or s0, s0, 1603
    36f4:	1e 00 00 88 	store_32 s0, (sp)
    36f8:	e0 fa ff f9 	call -5248 <kprintf>
    36fc:	18 10 02 a8 	load_32 s0, 132(s24)
    3700:	20 04 00 01 	and s1, s0, 1
    3704:	41 00 00 f2 	bz s1, 8 <dump_interrupt_frame+0x1a8>
    3708:	18 00 00 f6 	b 96 <dump_interrupt_frame+0x204>
    370c:	20 08 00 01 	and s1, s0, 2
    3710:	41 00 00 f2 	bz s1, 8 <dump_interrupt_frame+0x1b4>
    3714:	1d 00 00 f6 	b 116 <dump_interrupt_frame+0x224>
    3718:	20 10 00 01 	and s1, s0, 4
    371c:	e1 00 00 f2 	bz s1, 28 <dump_interrupt_frame+0x1d4>
    3720:	00 00 00 4f 	movehi s0, 0
    3724:	00 10 06 00 	or s0, s0, 388
    3728:	1e 00 00 88 	store_32 s0, (sp)
    372c:	d3 fa ff f9 	call -5300 <kprintf>
    3730:	1e a0 01 a8 	load_32 s0, 104(sp)
    3734:	00 10 02 a8 	load_32 s0, 132(s0)
    3738:	20 00 00 4f 	movehi s1, 0
    373c:	1e 10 00 88 	store_32 s0, 4(sp)
    3740:	01 d0 03 00 	or s0, s1, 244
    3744:	1e 00 00 88 	store_32 s0, (sp)
    3748:	cc fa ff f9 	call -5328 <kprintf>
    374c:	fe b3 01 a8 	load_32 ra, 108(sp)
    3750:	7e c3 01 a8 	load_32 s27, 112(sp)
    3754:	5e d3 01 a8 	load_32 s26, 116(sp)
    3758:	3e e3 01 a8 	load_32 s25, 120(sp)
    375c:	1e f3 01 a8 	load_32 s24, 124(sp)
    3760:	de 03 02 05 	add_i sp, sp, 128
    3764:	1f 00 00 f0 	ret
    3768:	00 00 00 4f 	movehi s0, 0
    376c:	00 1c 11 00 	or s0, s0, 1095
    3770:	1e 00 00 88 	store_32 s0, (sp)
    3774:	c1 fa ff f9 	call -5372 <kprintf>
    3778:	1e a0 01 a8 	load_32 s0, 104(sp)
    377c:	00 10 02 a8 	load_32 s0, 132(s0)
    3780:	20 08 00 01 	and s1, s0, 2
    3784:	a1 fc ff f3 	bz s1, -108 <dump_interrupt_frame+0x1b4>
    3788:	00 00 00 4f 	movehi s0, 0
    378c:	00 58 12 00 	or s0, s0, 1174
    3790:	1e 00 00 88 	store_32 s0, (sp)
    3794:	b9 fa ff f9 	call -5404 <kprintf>
    3798:	1e a0 01 a8 	load_32 s0, 104(sp)
    379c:	00 10 02 a8 	load_32 s0, 132(s0)
    37a0:	20 10 00 01 	and s1, s0, 4
    37a4:	a1 fc ff f3 	bz s1, -108 <dump_interrupt_frame+0x1d4>
    37a8:	de ff ff f7 	b -136 <dump_interrupt_frame+0x1bc>

00000000000037ac boot_init_heap:
    37ac:	24 00 00 4f 	movehi s1, 4
    37b0:	21 20 4c 00 	or s1, s1, 4872
    37b4:	01 00 00 88 	store_32 s0, (s1)
    37b8:	1f 00 00 f0 	ret

00000000000037bc kmalloc:
    37bc:	de 03 ff 05 	add_i sp, sp, -64
    37c0:	1e f3 00 88 	store_32 s24, 60(sp)
    37c4:	3e e3 00 88 	store_32 s25, 56(sp)
    37c8:	5e d3 00 88 	store_32 s26, 52(sp)
    37cc:	7e c3 00 88 	store_32 s27, 48(sp)
    37d0:	fe b3 00 88 	store_32 ra, 44(sp)
    37d4:	60 03 f0 c0 	move s27, s0
    37d8:	be fe ff f9 	call -1288 <disable_interrupts>
    37dc:	24 00 00 4f 	movehi s1, 4
    37e0:	60 04 00 0f 	move s3, 1
    37e4:	00 01 00 0f 	move s8, 0
    37e8:	41 33 4c 00 	or s26, s1, 4876
    37ec:	3a 00 00 a8 	load_32 s1, (s26)
    37f0:	e1 ff ff f5 	bnz s1, -4 <kmalloc+0x30>
    37f4:	3a 00 00 aa 	load_sync s1, (s26)
    37f8:	41 00 14 c1 	cmpne_i s2, s1, s8
    37fc:	82 00 00 f4 	bnz s2, 16 <kmalloc+0x50>
    3800:	40 80 f1 c0 	move s2, s3
    3804:	5a 00 00 8a 	store_sync s2, (s26)  
    3808:	62 ff ff f3 	bz s2, -20 <kmalloc+0x38>
    380c:	21 00 00 10 	cmpeq_i s1, s1, 0
    3810:	21 04 00 01 	and s1, s1, 1
    3814:	c1 fe ff f3 	bz s1, -40 <kmalloc+0x30>
    3818:	84 00 00 4f 	movehi s4, 4
    381c:	24 40 4c 00 	or s1, s4, 4880
    3820:	a1 00 00 a8 	load_32 s5, (s1)
    3824:	85 01 00 f2 	bz s5, 48 <kmalloc+0x98>
    3828:	20 83 f2 c0 	move s25, s5
    382c:	59 10 00 a8 	load_32 s2, 4(s25)
    3830:	62 80 1d c1 	cmpne_i s3, s2, s27
    3834:	43 00 00 f4 	bnz s3, 8 <kmalloc+0x80>
    3838:	5b 00 00 f6 	b 364 <kmalloc+0x1e8>
    383c:	42 80 9d c1 	cmple_u s2, s2, s27
    3840:	42 00 00 f4 	bnz s2, 8 <kmalloc+0x8c>
    3844:	5b 00 00 f6 	b 364 <kmalloc+0x1f4>
    3848:	20 80 fc c0 	move s1, s25
    384c:	39 03 00 a8 	load_32 s25, (s25)
    3850:	f9 fe ff f5 	bnz s25, -36 <kmalloc+0x70>
    3854:	db 04 00 0b 	shl s6, s27, 1
    3858:	7e 93 00 88 	store_32 s27, 36(sp)
    385c:	28 00 00 4f 	movehi s1, 8
    3860:	46 80 60 c1 	cmpgt_u s2, s6, s1
    3864:	42 00 00 f4 	bnz s2, 8 <kmalloc+0xb0>
    3868:	c0 80 f0 c0 	move s6, s1
    386c:	24 00 00 4f 	movehi s1, 4
    3870:	01 23 4c 00 	or s24, s1, 4872
    3874:	78 03 00 a8 	load_32 s27, (s24)
    3878:	7b 00 53 c0 	add_i s3, s27, s6
    387c:	3b 80 71 c1 	cmpge_u s1, s27, s3
    3880:	21 03 00 f4 	bnz s1, 100 <kmalloc+0x128>
    3884:	1e 61 00 88 	store_32 s8, 24(sp)
    3888:	9e 70 00 88 	store_32 s4, 28(sp)
    388c:	1e 80 00 88 	store_32 s0, 32(sp)
    3890:	00 00 00 0f 	move s0, 0
    3894:	1e a0 00 88 	store_32 s0, 40(sp)
    3898:	20 03 f3 c0 	move s25, s6
    389c:	c7 0b 00 f8 	call 12060 <vm_allocate_page>
    38a0:	5f 0c 00 f8 	call 12668 <page_to_pa>
    38a4:	40 6c 00 00 	or s2, s0, 27
    38a8:	1e a0 00 a8 	load_32 s0, 40(sp)
    38ac:	20 80 fd c0 	move s1, s27
    38b0:	b6 0a 00 f8 	call 10968 <vm_map_page>
    38b4:	c0 80 fc c0 	move s6, s25
    38b8:	38 03 00 a8 	load_32 s25, (s24)
    38bc:	7b 03 40 05 	add_i s27, s27, 4096
    38c0:	79 00 53 c0 	add_i s3, s25, s6
    38c4:	1b 80 81 c1 	cmplt_u s0, s27, s3
    38c8:	80 fe ff f5 	bnz s0, -48 <kmalloc+0xdc>
    38cc:	9e 70 00 a8 	load_32 s4, 28(sp)
    38d0:	04 40 4c 00 	or s0, s4, 4880
    38d4:	a0 00 00 a8 	load_32 s5, (s0)
    38d8:	1e 80 00 a8 	load_32 s0, 32(sp)
    38dc:	1e 61 00 a8 	load_32 s8, 24(sp)
    38e0:	02 00 00 f6 	b 8 <kmalloc+0x12c>
    38e4:	20 83 fd c0 	move s25, s27
    38e8:	3e 90 00 a8 	load_32 s1, 36(sp)
    38ec:	84 40 4c 00 	or s4, s4, 4880
    38f0:	59 80 50 c0 	add_i s2, s25, s1
    38f4:	26 80 60 c0 	sub_i s1, s6, s1
    38f8:	22 10 00 88 	store_32 s1, 4(s2)
    38fc:	78 00 00 88 	store_32 s3, (s24)
    3900:	05 04 00 f2 	bz s5, 128 <kmalloc+0x1c4>
    3904:	65 00 61 c1 	cmpgt_u s3, s5, s2
    3908:	c3 03 00 f4 	bnz s3, 120 <kmalloc+0x1c4>
    390c:	60 80 f2 c0 	move s3, s5
    3910:	a3 00 00 a8 	load_32 s5, (s3)
    3914:	a5 00 00 f2 	bz s5, 20 <kmalloc+0x16c>
    3918:	83 00 71 c1 	cmpge_u s4, s3, s2
    391c:	84 ff ff f5 	bnz s4, -16 <kmalloc+0x150>
    3920:	85 00 91 c1 	cmple_u s4, s5, s2
    3924:	44 ff ff f5 	bnz s4, -24 <kmalloc+0x150>
    3928:	80 80 f1 c0 	move s4, s3
    392c:	a2 00 00 88 	store_32 s5, (s2)
    3930:	44 00 00 88 	store_32 s2, (s4)
    3934:	c2 00 00 a8 	load_32 s6, (s2)
    3938:	06 03 00 f2 	bz s6, 96 <kmalloc+0x1dc>
    393c:	82 80 50 c0 	add_i s4, s2, s1
    3940:	84 00 13 c1 	cmpne_i s4, s4, s6
    3944:	c4 02 00 f4 	bnz s4, 88 <kmalloc+0x1e0>
    3948:	86 10 00 a8 	load_32 s4, 4(s6)
    394c:	24 80 50 c0 	add_i s1, s4, s1
    3950:	22 10 00 88 	store_32 s1, 4(s2)
    3954:	c6 00 00 a8 	load_32 s6, (s6)
    3958:	c2 00 00 88 	store_32 s6, (s2)
    395c:	23 03 00 f2 	bz s3, 100 <kmalloc+0x204>
    3960:	83 10 00 a8 	load_32 s4, 4(s3)
    3964:	a3 00 52 c0 	add_i s5, s3, s4
    3968:	45 00 11 c1 	cmpne_i s2, s5, s2
    396c:	a2 02 00 f4 	bnz s2, 84 <kmalloc+0x204>
    3970:	c3 00 00 88 	store_32 s6, (s3)
    3974:	21 00 52 c0 	add_i s1, s1, s4
    3978:	23 10 00 88 	store_32 s1, 4(s3)
    397c:	11 00 00 f6 	b 68 <kmalloc+0x204>
    3980:	60 00 f4 c0 	move s3, s8
    3984:	a2 00 00 88 	store_32 s5, (s2)
    3988:	44 00 00 88 	store_32 s2, (s4)
    398c:	c2 00 00 a8 	load_32 s6, (s2)
    3990:	46 00 00 f2 	bz s6, 8 <kmalloc+0x1dc>
    3994:	ea ff ff f7 	b -88 <kmalloc+0x180>
    3998:	c0 00 f4 c0 	move s6, s8
    399c:	23 01 00 f2 	bz s3, 36 <kmalloc+0x204>
    39a0:	f0 ff ff f7 	b -64 <kmalloc+0x1a4>
    39a4:	59 00 00 a8 	load_32 s2, (s25)
    39a8:	41 00 00 88 	store_32 s2, (s1)
    39ac:	05 00 00 f6 	b 20 <kmalloc+0x204>
    39b0:	79 80 5d c0 	add_i s3, s25, s27
    39b4:	59 00 00 a8 	load_32 s2, (s25)
    39b8:	43 00 00 88 	store_32 s2, (s3)
    39bc:	61 00 00 88 	store_32 s3, (s1)
    39c0:	1a 01 00 88 	store_32 s8, (s26)
    39c4:	00 00 00 e8 	membar
    39c8:	4a fe ff f9 	call -1752 <restore_interrupts>
    39cc:	00 80 fc c0 	move s0, s25
    39d0:	fe b3 00 a8 	load_32 ra, 44(sp)
    39d4:	7e c3 00 a8 	load_32 s27, 48(sp)
    39d8:	5e d3 00 a8 	load_32 s26, 52(sp)
    39dc:	3e e3 00 a8 	load_32 s25, 56(sp)
    39e0:	1e f3 00 a8 	load_32 s24, 60(sp)
    39e4:	de 03 01 05 	add_i sp, sp, 64
    39e8:	1f 00 00 f0 	ret

00000000000039ec kfree:
    39ec:	de 03 ff 05 	add_i sp, sp, -64
    39f0:	1e f3 00 88 	store_32 s24, 60(sp)
    39f4:	fe e3 00 88 	store_32 ra, 56(sp)
    39f8:	00 03 f0 c0 	move s24, s0
    39fc:	38 10 00 88 	store_32 s1, 4(s24)
    3a00:	34 fe ff f9 	call -1840 <disable_interrupts>
    3a04:	24 00 00 4f 	movehi s1, 4
    3a08:	60 04 00 0f 	move s3, 1
    3a0c:	40 00 00 0f 	move s2, 0
    3a10:	21 30 4c 00 	or s1, s1, 4876
    3a14:	81 00 00 a8 	load_32 s4, (s1)
    3a18:	e4 ff ff f5 	bnz s4, -4 <kfree+0x28>
    3a1c:	81 00 00 aa 	load_sync s4, (s1)
    3a20:	a4 00 11 c1 	cmpne_i s5, s4, s2
    3a24:	85 00 00 f4 	bnz s5, 16 <kfree+0x48>
    3a28:	a0 80 f1 c0 	move s5, s3
    3a2c:	a1 00 00 8a 	store_sync s5, (s1)  
    3a30:	65 ff ff f3 	bz s5, -20 <kfree+0x30>
    3a34:	84 00 00 10 	cmpeq_i s4, s4, 0
    3a38:	84 04 00 01 	and s4, s4, 1
    3a3c:	c4 fe ff f3 	bz s4, -40 <kfree+0x28>
    3a40:	64 00 00 4f 	movehi s3, 4
    3a44:	a3 40 4c 00 	or s5, s3, 4880
    3a48:	85 00 00 a8 	load_32 s4, (s5)
    3a4c:	04 02 00 f2 	bz s4, 64 <kfree+0xa0>
    3a50:	64 00 6c c1 	cmpgt_u s3, s4, s24
    3a54:	c3 01 00 f4 	bnz s3, 56 <kfree+0xa0>
    3a58:	60 00 f2 c0 	move s3, s4
    3a5c:	83 00 00 a8 	load_32 s4, (s3)
    3a60:	a4 00 00 f2 	bz s4, 20 <kfree+0x88>
    3a64:	a3 00 7c c1 	cmpge_u s5, s3, s24
    3a68:	85 ff ff f5 	bnz s5, -16 <kfree+0x6c>
    3a6c:	a4 00 9c c1 	cmple_u s5, s4, s24
    3a70:	45 ff ff f5 	bnz s5, -24 <kfree+0x6c>
    3a74:	98 00 00 88 	store_32 s4, (s24)
    3a78:	a0 80 f1 c0 	move s5, s3
    3a7c:	05 03 00 88 	store_32 s24, (s5)
    3a80:	98 00 00 a8 	load_32 s4, (s24)
    3a84:	a4 01 00 f2 	bz s4, 52 <kfree+0xcc>
    3a88:	06 00 00 f6 	b 24 <kfree+0xb4>
    3a8c:	98 00 00 88 	store_32 s4, (s24)
    3a90:	60 00 00 0f 	move s3, 0
    3a94:	05 03 00 88 	store_32 s24, (s5)
    3a98:	98 00 00 a8 	load_32 s4, (s24)
    3a9c:	e4 00 00 f2 	bz s4, 28 <kfree+0xcc>
    3aa0:	58 10 00 a8 	load_32 s2, 4(s24)
    3aa4:	b8 00 51 c0 	add_i s5, s24, s2
    3aa8:	a5 00 12 c1 	cmpne_i s5, s5, s4
    3aac:	45 00 00 f4 	bnz s5, 8 <kfree+0xc8>
    3ab0:	0c 00 00 f6 	b 48 <kfree+0xf4>
    3ab4:	40 00 f2 c0 	move s2, s4
    3ab8:	23 02 00 f2 	bz s3, 68 <kfree+0x110>
    3abc:	83 10 00 a8 	load_32 s4, 4(s3)
    3ac0:	a3 00 52 c0 	add_i s5, s3, s4
    3ac4:	a5 00 1c c1 	cmpne_i s5, s5, s24
    3ac8:	a5 01 00 f4 	bnz s5, 52 <kfree+0x110>
    3acc:	43 00 00 88 	store_32 s2, (s3)
    3ad0:	58 10 00 a8 	load_32 s2, 4(s24)
    3ad4:	42 00 52 c0 	add_i s2, s2, s4
    3ad8:	43 10 00 88 	store_32 s2, 4(s3)
    3adc:	08 00 00 f6 	b 32 <kfree+0x110>
    3ae0:	a4 10 00 a8 	load_32 s5, 4(s4)
    3ae4:	45 00 51 c0 	add_i s2, s5, s2
    3ae8:	58 10 00 88 	store_32 s2, 4(s24)
    3aec:	44 00 00 a8 	load_32 s2, (s4)
    3af0:	58 00 00 88 	store_32 s2, (s24)
    3af4:	43 00 00 f2 	bz s3, 8 <kfree+0x110>
    3af8:	f1 ff ff f7 	b -60 <kfree+0xd0>
    3afc:	40 00 00 0f 	move s2, 0
    3b00:	41 00 00 88 	store_32 s2, (s1)
    3b04:	00 00 00 e8 	membar
    3b08:	fa fd ff f9 	call -2072 <restore_interrupts>
    3b0c:	fe e3 00 a8 	load_32 ra, 56(sp)
    3b10:	1e f3 00 a8 	load_32 s24, 60(sp)
    3b14:	de 03 01 05 	add_i sp, sp, 64
    3b18:	1f 00 00 f0 	ret

0000000000003b1c slab_alloc:
    3b1c:	de 03 ff 05 	add_i sp, sp, -64
    3b20:	1e f3 00 88 	store_32 s24, 60(sp)
    3b24:	3e e3 00 88 	store_32 s25, 56(sp)
    3b28:	5e d3 00 88 	store_32 s26, 52(sp)
    3b2c:	7e c3 00 88 	store_32 s27, 48(sp)
    3b30:	fe b3 00 88 	store_32 ra, 44(sp)
    3b34:	00 03 f0 c0 	move s24, s0
    3b38:	e6 fd ff f9 	call -2152 <disable_interrupts>
    3b3c:	20 03 f0 c0 	move s25, s0
    3b40:	00 04 00 0f 	move s0, 1
    3b44:	60 03 00 0f 	move s27, 0
    3b48:	38 00 00 a8 	load_32 s1, (s24)
    3b4c:	e1 ff ff f5 	bnz s1, -4 <slab_alloc+0x2c>
    3b50:	38 00 00 aa 	load_sync s1, (s24)
    3b54:	41 80 1d c1 	cmpne_i s2, s1, s27
    3b58:	82 00 00 f4 	bnz s2, 16 <slab_alloc+0x4c>
    3b5c:	40 00 f0 c0 	move s2, s0
    3b60:	58 00 00 8a 	store_sync s2, (s24)  
    3b64:	62 ff ff f3 	bz s2, -20 <slab_alloc+0x34>
    3b68:	21 00 00 10 	cmpeq_i s1, s1, 0
    3b6c:	21 04 00 01 	and s1, s1, 1
    3b70:	c1 fe ff f3 	bz s1, -40 <slab_alloc+0x2c>
    3b74:	58 23 00 a8 	load_32 s26, 8(s24)
    3b78:	9a 00 00 f2 	bz s26, 16 <slab_alloc+0x6c>
    3b7c:	1a 00 00 a8 	load_32 s0, (s26)
    3b80:	18 20 00 88 	store_32 s0, 8(s24)
    3b84:	15 00 00 f6 	b 84 <slab_alloc+0xbc>
    3b88:	18 30 00 a8 	load_32 s0, 12(s24)
    3b8c:	40 00 00 f4 	bnz s0, 8 <slab_alloc+0x78>
    3b90:	08 00 00 f6 	b 32 <slab_alloc+0x94>
    3b94:	78 40 00 a8 	load_32 s3, 16(s24)
    3b98:	58 10 00 a8 	load_32 s2, 4(s24)
    3b9c:	38 50 00 a8 	load_32 s1, 20(s24)
    3ba0:	82 80 51 c0 	add_i s4, s2, s3
    3ba4:	84 80 90 c1 	cmple_u s4, s4, s1
    3ba8:	24 01 00 f4 	bnz s4, 36 <slab_alloc+0xb0>
    3bac:	02 00 00 f6 	b 8 <slab_alloc+0x98>
    3bb0:	38 50 00 a8 	load_32 s1, 20(s24)
    3bb4:	00 80 f0 c0 	move s0, s1
    3bb8:	01 ff ff f9 	call -1020 <kmalloc>
    3bbc:	18 30 00 88 	store_32 s0, 12(s24)
    3bc0:	78 43 00 88 	store_32 s27, 16(s24)
    3bc4:	58 10 00 a8 	load_32 s2, 4(s24)
    3bc8:	60 80 fd c0 	move s3, s27
    3bcc:	40 83 51 c0 	add_i s26, s0, s3
    3bd0:	02 80 51 c0 	add_i s0, s2, s3
    3bd4:	18 40 00 88 	store_32 s0, 16(s24)
    3bd8:	78 03 00 88 	store_32 s27, (s24)
    3bdc:	00 00 00 e8 	membar
    3be0:	00 80 fc c0 	move s0, s25
    3be4:	c3 fd ff f9 	call -2292 <restore_interrupts>
    3be8:	00 00 fd c0 	move s0, s26
    3bec:	fe b3 00 a8 	load_32 ra, 44(sp)
    3bf0:	7e c3 00 a8 	load_32 s27, 48(sp)
    3bf4:	5e d3 00 a8 	load_32 s26, 52(sp)
    3bf8:	3e e3 00 a8 	load_32 s25, 56(sp)
    3bfc:	1e f3 00 a8 	load_32 s24, 60(sp)
    3c00:	de 03 01 05 	add_i sp, sp, 64
    3c04:	1f 00 00 f0 	ret

0000000000003c08 slab_free:
    3c08:	de 03 ff 05 	add_i sp, sp, -64
    3c0c:	1e f3 00 88 	store_32 s24, 60(sp)
    3c10:	3e e3 00 88 	store_32 s25, 56(sp)
    3c14:	fe d3 00 88 	store_32 ra, 52(sp)
    3c18:	20 83 f0 c0 	move s25, s1
    3c1c:	00 03 f0 c0 	move s24, s0
    3c20:	ac fd ff f9 	call -2384 <disable_interrupts>
    3c24:	40 04 00 0f 	move s2, 1
    3c28:	20 00 00 0f 	move s1, 0
    3c2c:	78 00 00 a8 	load_32 s3, (s24)
    3c30:	e3 ff ff f5 	bnz s3, -4 <slab_free+0x24>
    3c34:	78 00 00 aa 	load_sync s3, (s24)
    3c38:	83 80 10 c1 	cmpne_i s4, s3, s1
    3c3c:	84 00 00 f4 	bnz s4, 16 <slab_free+0x44>
    3c40:	80 00 f1 c0 	move s4, s2
    3c44:	98 00 00 8a 	store_sync s4, (s24)  
    3c48:	64 ff ff f3 	bz s4, -20 <slab_free+0x2c>
    3c4c:	63 00 00 10 	cmpeq_i s3, s3, 0
    3c50:	63 04 00 01 	and s3, s3, 1
    3c54:	c3 fe ff f3 	bz s3, -40 <slab_free+0x24>
    3c58:	58 20 00 a8 	load_32 s2, 8(s24)
    3c5c:	59 00 00 88 	store_32 s2, (s25)
    3c60:	38 23 00 88 	store_32 s25, 8(s24)
    3c64:	38 00 00 88 	store_32 s1, (s24)
    3c68:	00 00 00 e8 	membar
    3c6c:	a1 fd ff f9 	call -2428 <restore_interrupts>
    3c70:	fe d3 00 a8 	load_32 ra, 52(sp)
    3c74:	3e e3 00 a8 	load_32 s25, 56(sp)
    3c78:	1e f3 00 a8 	load_32 s24, 60(sp)
    3c7c:	de 03 01 05 	add_i sp, sp, 64
    3c80:	1f 00 00 f0 	ret

0000000000003c84 context_switch:
    3c84:	de 03 21 06 	sub_i sp, sp, 2112
    3c88:	1e 00 00 8e 	store_v v0, (sp)
    3c8c:	3e 00 01 8e 	store_v v1, 64(sp)
    3c90:	5e 00 02 8e 	store_v v2, 128(sp)
    3c94:	7e 00 03 8e 	store_v v3, 192(sp)
    3c98:	9e 00 04 8e 	store_v v4, 256(sp)
    3c9c:	be 00 05 8e 	store_v v5, 320(sp)
    3ca0:	de 00 06 8e 	store_v v6, 384(sp)
    3ca4:	fe 00 07 8e 	store_v v7, 448(sp)
    3ca8:	1e 01 08 8e 	store_v v8, 512(sp)
    3cac:	3e 01 09 8e 	store_v v9, 576(sp)
    3cb0:	5e 01 0a 8e 	store_v v10, 640(sp)
    3cb4:	7e 01 0b 8e 	store_v v11, 704(sp)
    3cb8:	9e 01 0c 8e 	store_v v12, 768(sp)
    3cbc:	be 01 0d 8e 	store_v v13, 832(sp)
    3cc0:	de 01 0e 8e 	store_v v14, 896(sp)
    3cc4:	fe 01 0f 8e 	store_v v15, 960(sp)
    3cc8:	1e 02 10 8e 	store_v v16, 1024(sp)
    3ccc:	3e 02 11 8e 	store_v v17, 1088(sp)
    3cd0:	5e 02 12 8e 	store_v v18, 1152(sp)
    3cd4:	7e 02 13 8e 	store_v v19, 1216(sp)
    3cd8:	9e 02 14 8e 	store_v v20, 1280(sp)
    3cdc:	be 02 15 8e 	store_v v21, 1344(sp)
    3ce0:	de 02 16 8e 	store_v v22, 1408(sp)
    3ce4:	fe 02 17 8e 	store_v v23, 1472(sp)
    3ce8:	1e 03 18 8e 	store_v v24, 1536(sp)
    3cec:	3e 03 19 8e 	store_v v25, 1600(sp)
    3cf0:	5e 03 1a 8e 	store_v v26, 1664(sp)
    3cf4:	7e 03 1b 8e 	store_v v27, 1728(sp)
    3cf8:	9e 03 1c 8e 	store_v v28, 1792(sp)
    3cfc:	be 03 1d 8e 	store_v v29, 1856(sp)
    3d00:	de 03 1e 8e 	store_v v30, 1920(sp)
    3d04:	fe 03 1f 8e 	store_v v31, 1984(sp)
    3d08:	1e 03 20 88 	store_32 s24, 2048(sp)
    3d0c:	3e 13 20 88 	store_32 s25, 2052(sp)
    3d10:	5e 23 20 88 	store_32 s26, 2056(sp)
    3d14:	7e 33 20 88 	store_32 s27, 2060(sp)
    3d18:	9e 43 20 88 	store_32 gp, 2064(sp)
    3d1c:	be 53 20 88 	store_32 fp, 2068(sp)
    3d20:	fe 63 20 88 	store_32 ra, 2072(sp)
    3d24:	c0 03 00 88 	store_32 sp, (s0)
    3d28:	c0 83 f0 c0 	move sp, s1
    3d2c:	1e 00 00 ae 	load_v v0, (sp)
    3d30:	3e 00 01 ae 	load_v v1, 64(sp)
    3d34:	5e 00 02 ae 	load_v v2, 128(sp)
    3d38:	7e 00 03 ae 	load_v v3, 192(sp)
    3d3c:	9e 00 04 ae 	load_v v4, 256(sp)
    3d40:	be 00 05 ae 	load_v v5, 320(sp)
    3d44:	de 00 06 ae 	load_v v6, 384(sp)
    3d48:	fe 00 07 ae 	load_v v7, 448(sp)
    3d4c:	1e 01 08 ae 	load_v v8, 512(sp)
    3d50:	3e 01 09 ae 	load_v v9, 576(sp)
    3d54:	5e 01 0a ae 	load_v v10, 640(sp)
    3d58:	7e 01 0b ae 	load_v v11, 704(sp)
    3d5c:	9e 01 0c ae 	load_v v12, 768(sp)
    3d60:	be 01 0d ae 	load_v v13, 832(sp)
    3d64:	de 01 0e ae 	load_v v14, 896(sp)
    3d68:	fe 01 0f ae 	load_v v15, 960(sp)
    3d6c:	1e 02 10 ae 	load_v v16, 1024(sp)
    3d70:	3e 02 11 ae 	load_v v17, 1088(sp)
    3d74:	5e 02 12 ae 	load_v v18, 1152(sp)
    3d78:	7e 02 13 ae 	load_v v19, 1216(sp)
    3d7c:	9e 02 14 ae 	load_v v20, 1280(sp)
    3d80:	be 02 15 ae 	load_v v21, 1344(sp)
    3d84:	de 02 16 ae 	load_v v22, 1408(sp)
    3d88:	fe 02 17 ae 	load_v v23, 1472(sp)
    3d8c:	1e 03 18 ae 	load_v v24, 1536(sp)
    3d90:	3e 03 19 ae 	load_v v25, 1600(sp)
    3d94:	5e 03 1a ae 	load_v v26, 1664(sp)
    3d98:	7e 03 1b ae 	load_v v27, 1728(sp)
    3d9c:	9e 03 1c ae 	load_v v28, 1792(sp)
    3da0:	be 03 1d ae 	load_v v29, 1856(sp)
    3da4:	de 03 1e ae 	load_v v30, 1920(sp)
    3da8:	fe 03 1f ae 	load_v v31, 1984(sp)
    3dac:	1e 03 20 a8 	load_32 s24, 2048(sp)
    3db0:	3e 13 20 a8 	load_32 s25, 2052(sp)
    3db4:	5e 23 20 a8 	load_32 s26, 2056(sp)
    3db8:	7e 33 20 a8 	load_32 s27, 2060(sp)
    3dbc:	9e 43 20 a8 	load_32 gp, 2064(sp)
    3dc0:	be 53 20 a8 	load_32 fp, 2068(sp)
    3dc4:	fe 63 20 a8 	load_32 ra, 2072(sp)
    3dc8:	de 03 21 05 	add_i sp, sp, 2112
    3dcc:	1f 00 00 f0 	ret

0000000000003dd0 bool_init_kernel_process:
    3dd0:	de 03 ff 05 	add_i sp, sp, -64
    3dd4:	1e f3 00 88 	store_32 s24, 60(sp)
    3dd8:	3e e3 00 88 	store_32 s25, 56(sp)
    3ddc:	fe d3 00 88 	store_32 ra, 52(sp)
    3de0:	04 00 00 4f 	movehi s0, 4
    3de4:	24 00 00 4f 	movehi s1, 4
    3de8:	44 00 00 4f 	movehi s2, 4
    3dec:	00 50 4c 00 	or s0, s0, 4884
    3df0:	21 70 4c 00 	or s1, s1, 4892
    3df4:	02 93 4c 00 	or s24, s2, 4900
    3df8:	00 10 00 88 	store_32 s0, 4(s0)
    3dfc:	00 00 00 88 	store_32 s0, (s0)
    3e00:	04 00 00 4f 	movehi s0, 4
    3e04:	21 10 00 88 	store_32 s1, 4(s1)
    3e08:	21 00 00 88 	store_32 s1, (s1)
    3e0c:	00 20 40 00 	or s0, s0, 4104
    3e10:	18 13 00 88 	store_32 s24, 4(s24)
    3e14:	18 03 00 88 	store_32 s24, (s24)
    3e18:	41 ff ff f9 	call -764 <slab_alloc>
    3e1c:	24 00 00 4f 	movehi s1, 4
    3e20:	21 b3 4c 00 	or s25, s1, 4908
    3e24:	20 50 00 05 	add_i s1, s0, 20
    3e28:	19 00 00 88 	store_32 s0, (s25)
    3e2c:	20 60 00 88 	store_32 s1, 24(s0)
    3e30:	20 50 00 88 	store_32 s1, 20(s0)
    3e34:	f6 0c 00 f8 	call 13272 <get_kernel_address_space>
    3e38:	39 00 00 a8 	load_32 s1, (s25)
    3e3c:	44 00 00 4f 	movehi s2, 4
    3e40:	42 c0 4c 00 	or s2, s2, 4912
    3e44:	01 70 00 88 	store_32 s0, 28(s1)
    3e48:	00 00 00 0f 	move s0, 0
    3e4c:	01 30 00 88 	store_32 s0, 12(s1)
    3e50:	01 40 00 88 	store_32 s0, 16(s1)
    3e54:	18 00 00 a8 	load_32 s0, (s24)
    3e58:	01 00 00 88 	store_32 s0, (s1)
    3e5c:	01 13 00 88 	store_32 s24, 4(s1)
    3e60:	20 10 00 88 	store_32 s1, 4(s0)
    3e64:	01 10 00 a8 	load_32 s0, 4(s1)
    3e68:	20 00 00 88 	store_32 s1, (s0)
    3e6c:	00 04 00 0f 	move s0, 1
    3e70:	02 00 00 88 	store_32 s0, (s2)
    3e74:	fe d3 00 a8 	load_32 ra, 52(sp)
    3e78:	3e e3 00 a8 	load_32 s25, 56(sp)
    3e7c:	1e f3 00 a8 	load_32 s24, 60(sp)
    3e80:	de 03 01 05 	add_i sp, sp, 64
    3e84:	1f 00 00 f0 	ret

0000000000003e88 boot_init_thread:
    3e88:	de 03 ff 05 	add_i sp, sp, -64
    3e8c:	1e f3 00 88 	store_32 s24, 60(sp)
    3e90:	3e e3 00 88 	store_32 s25, 56(sp)
    3e94:	5e d3 00 88 	store_32 s26, 52(sp)
    3e98:	7e c3 00 88 	store_32 s27, 48(sp)
    3e9c:	fe b3 00 88 	store_32 ra, 44(sp)
    3ea0:	04 00 00 4f 	movehi s0, 4
    3ea4:	00 80 40 00 	or s0, s0, 4128
    3ea8:	1d ff ff f9 	call -908 <slab_alloc>
    3eac:	24 00 00 4f 	movehi s1, 4
    3eb0:	00 03 f0 c0 	move s24, s0
    3eb4:	04 00 00 4f 	movehi s0, 4
    3eb8:	21 b3 4c 00 	or s25, s1, 4908
    3ebc:	40 07 00 0f 	move s26, 1
    3ec0:	58 c3 00 88 	store_32 s26, 48(s24)
    3ec4:	00 d0 4c 00 	or s0, s0, 4916
    3ec8:	39 00 00 a8 	load_32 s1, (s25)
    3ecc:	38 90 00 88 	store_32 s1, 36(s24)
    3ed0:	20 00 00 aa 	load_sync s1, (s0)
    3ed4:	41 04 00 05 	add_i s2, s1, 1
    3ed8:	20 80 f0 c0 	move s1, s1
    3edc:	40 00 00 8a 	store_sync s2, (s0)  
    3ee0:	82 ff ff f3 	bz s2, -16 <boot_init_thread+0x48>
    3ee4:	38 40 00 88 	store_32 s1, 16(s24)
    3ee8:	20 00 00 4f 	movehi s1, 0
    3eec:	18 d0 00 05 	add_i s0, s24, 52
    3ef0:	40 80 00 0f 	move s2, 32
    3ef4:	21 44 25 00 	or s1, s1, 2385
    3ef8:	e5 fa ff f9 	call -5228 <strlcpy>
    3efc:	04 00 00 4f 	movehi s0, 4
    3f00:	20 00 00 ac 	getcr s1, 0
    3f04:	00 00 45 00 	or s0, s0, 4416
    3f08:	21 08 00 0b 	shl s1, s1, 2
    3f0c:	00 80 50 c0 	add_i s0, s0, s1
    3f10:	00 03 00 88 	store_32 s24, (s0)
    3f14:	79 03 00 a8 	load_32 s27, (s25)
    3f18:	ee fc ff f9 	call -3144 <disable_interrupts>
    3f1c:	5b 40 00 05 	add_i s2, s27, 16
    3f20:	20 00 00 0f 	move s1, 0
    3f24:	7b 40 00 a8 	load_32 s3, 16(s27)
    3f28:	e3 ff ff f5 	bnz s3, -4 <boot_init_thread+0x9c>
    3f2c:	62 00 00 aa 	load_sync s3, (s2)
    3f30:	83 80 10 c1 	cmpne_i s4, s3, s1
    3f34:	84 00 00 f4 	bnz s4, 16 <boot_init_thread+0xbc>
    3f38:	80 00 fd c0 	move s4, s26
    3f3c:	82 00 00 8a 	store_sync s4, (s2)  
    3f40:	64 ff ff f3 	bz s4, -20 <boot_init_thread+0xa4>
    3f44:	63 00 00 10 	cmpeq_i s3, s3, 0
    3f48:	63 04 00 01 	and s3, s3, 1
    3f4c:	c3 fe ff f3 	bz s3, -40 <boot_init_thread+0x9c>
    3f50:	59 00 00 a8 	load_32 s2, (s25)
    3f54:	b8 20 00 05 	add_i s5, s24, 8
    3f58:	82 50 00 a8 	load_32 s4, 20(s2)
    3f5c:	62 50 00 05 	add_i s3, s2, 20
    3f60:	98 20 00 88 	store_32 s4, 8(s24)
    3f64:	78 30 00 88 	store_32 s3, 12(s24)
    3f68:	a4 10 00 88 	store_32 s5, 4(s4)
    3f6c:	78 30 00 a8 	load_32 s3, 12(s24)
    3f70:	a3 00 00 88 	store_32 s5, (s3)
    3f74:	22 40 00 88 	store_32 s1, 16(s2)
    3f78:	00 00 00 e8 	membar
    3f7c:	dd fc ff f9 	call -3212 <restore_interrupts>
    3f80:	01 00 00 4f 	movehi s0, 1
    3f84:	20 c0 7e 00 	or s1, s0, 8112
    3f88:	00 04 00 0f 	move s0, 1
    3f8c:	e7 fc ff f9 	call -3172 <register_interrupt_handler>
    3f90:	1c f8 ff f9 	call -8080 <start_timer>
    3f94:	fe b3 00 a8 	load_32 ra, 44(sp)
    3f98:	7e c3 00 a8 	load_32 s27, 48(sp)
    3f9c:	5e d3 00 a8 	load_32 s26, 52(sp)
    3fa0:	3e e3 00 a8 	load_32 s25, 56(sp)
    3fa4:	1e f3 00 a8 	load_32 s24, 60(sp)
    3fa8:	de 03 01 05 	add_i sp, sp, 64
    3fac:	1f 00 00 f0 	ret

0000000000003fb0 timer_tick:
    3fb0:	de 03 ff 05 	add_i sp, sp, -64
    3fb4:	fe f3 00 88 	store_32 ra, 60(sp)
    3fb8:	12 f8 ff f9 	call -8120 <start_timer>
    3fbc:	00 04 00 0f 	move s0, 1
    3fc0:	eb fc ff f9 	call -3156 <ack_interrupt>
    3fc4:	04 00 00 4f 	movehi s0, 4
    3fc8:	20 00 00 ac 	getcr s1, 0
    3fcc:	00 00 4d 00 	or s0, s0, 4928
    3fd0:	21 08 00 0b 	shl s1, s1, 2
    3fd4:	00 80 50 c0 	add_i s0, s0, s1
    3fd8:	00 00 00 a8 	load_32 s0, (s0)
    3fdc:	40 00 00 f4 	bnz s0, 8 <timer_tick+0x34>
    3fe0:	04 00 00 f6 	b 16 <timer_tick+0x40>
    3fe4:	fe f3 00 a8 	load_32 ra, 60(sp)
    3fe8:	de 03 01 05 	add_i sp, sp, 64
    3fec:	1f 00 00 f0 	ret
    3ff0:	51 01 00 f8 	call 1348 <reschedule>
    3ff4:	fe f3 00 a8 	load_32 ra, 60(sp)
    3ff8:	de 03 01 05 	add_i sp, sp, 64
    3ffc:	1f 00 00 f0 	ret

0000000000004000 current_thread:
    4000:	04 00 00 4f 	movehi s0, 4
    4004:	20 00 00 ac 	getcr s1, 0
    4008:	00 00 45 00 	or s0, s0, 4416
    400c:	21 08 00 0b 	shl s1, s1, 2
    4010:	00 80 50 c0 	add_i s0, s0, s1
    4014:	00 00 00 a8 	load_32 s0, (s0)
    4018:	1f 00 00 f0 	ret

000000000000401c spawn_thread_internal:
    401c:	de 03 ff 05 	add_i sp, sp, -64
    4020:	1e f3 00 88 	store_32 s24, 60(sp)
    4024:	3e e3 00 88 	store_32 s25, 56(sp)
    4028:	5e d3 00 88 	store_32 s26, 52(sp)
    402c:	7e c3 00 88 	store_32 s27, 48(sp)
    4030:	fe b3 00 88 	store_32 ra, 44(sp)
    4034:	be a0 00 88 	store_32 s5, 40(sp)
    4038:	9e 90 00 88 	store_32 s4, 36(sp)
    403c:	7e 80 00 88 	store_32 s3, 32(sp)
    4040:	5e 70 00 88 	store_32 s2, 28(sp)
    4044:	20 83 f0 c0 	move s25, s1
    4048:	40 03 f0 c0 	move s26, s0
    404c:	04 00 00 4f 	movehi s0, 4
    4050:	00 80 40 00 	or s0, s0, 4128
    4054:	b2 fe ff f9 	call -1336 <slab_alloc>
    4058:	00 03 f0 c0 	move s24, s0
    405c:	40 80 00 0f 	move s2, 32
    4060:	20 00 fd c0 	move s1, s26
    4064:	18 d0 00 05 	add_i s0, s24, 52
    4068:	89 fa ff f9 	call -5596 <strlcpy>
    406c:	68 0c 00 f8 	call 12704 <get_kernel_address_space>
    4070:	20 00 00 4f 	movehi s1, 0
    4074:	40 07 00 0f 	move s26, 1
    4078:	60 03 00 0f 	move s27, 0
    407c:	81 50 1b 00 	or s4, s1, 1748
    4080:	60 00 fd c0 	move s3, s26
    4084:	c0 80 fd c0 	move s6, s27
    4088:	20 fc ff 0f 	move s1, -1
    408c:	42 00 00 4f 	movehi s2, 2
    4090:	a0 0c 00 0f 	move s5, 3
    4094:	e0 80 fd c0 	move s7, s27
    4098:	fa 0c 00 f8 	call 13288 <create_area>
    409c:	18 70 00 88 	store_32 s0, 28(s24)
    40a0:	00 30 00 a8 	load_32 s0, 12(s0)
    40a4:	20 04 00 05 	add_i s1, s0, 1
    40a8:	38 50 00 88 	store_32 s1, 20(s24)
    40ac:	20 04 df 05 	add_i s1, s0, -2111
    40b0:	38 60 00 88 	store_32 s1, 24(s24)
    40b4:	38 93 00 88 	store_32 s25, 36(s24)
    40b8:	3e 70 00 a8 	load_32 s1, 28(sp)
    40bc:	20 64 ff 89 	store_32 s1, -39(s0)
    40c0:	04 00 00 4f 	movehi s0, 4
    40c4:	3e 80 00 a8 	load_32 s1, 32(sp)
    40c8:	38 a0 00 88 	store_32 s1, 40(s24)
    40cc:	00 d0 4c 00 	or s0, s0, 4916
    40d0:	3e 90 00 a8 	load_32 s1, 36(sp)
    40d4:	38 b0 00 88 	store_32 s1, 44(s24)
    40d8:	20 00 00 aa 	load_sync s1, (s0)
    40dc:	41 04 00 05 	add_i s2, s1, 1
    40e0:	20 80 f0 c0 	move s1, s1
    40e4:	40 00 00 8a 	store_sync s2, (s0)  
    40e8:	82 ff ff f3 	bz s2, -16 <spawn_thread_internal+0xbc>
    40ec:	38 40 00 88 	store_32 s1, 16(s24)
    40f0:	78 c3 00 88 	store_32 s27, 48(s24)
    40f4:	00 80 fd c0 	move s0, s27
    40f8:	3e a0 00 a8 	load_32 s1, 40(sp)
    40fc:	61 01 00 f4 	bnz s1, 44 <spawn_thread_internal+0x10c>
    4100:	20 00 00 4f 	movehi s1, 0
    4104:	19 70 00 a8 	load_32 s0, 28(s25)
    4108:	c0 00 00 0f 	move s6, 0
    410c:	48 00 00 4f 	movehi s2, 8
    4110:	81 9c 0e 00 	or s4, s1, 935
    4114:	20 fc ff 0f 	move s1, -1
    4118:	60 04 00 0f 	move s3, 1
    411c:	a0 08 00 0f 	move s5, 2
    4120:	e0 00 f3 c0 	move s7, s6
    4124:	d7 0c 00 f8 	call 13148 <create_area>
    4128:	18 80 00 88 	store_32 s0, 32(s24)
    412c:	69 fc ff f9 	call -3676 <disable_interrupts>
    4130:	39 40 00 05 	add_i s1, s25, 16
    4134:	59 40 00 a8 	load_32 s2, 16(s25)
    4138:	e2 ff ff f5 	bnz s2, -4 <spawn_thread_internal+0x118>
    413c:	41 00 00 aa 	load_sync s2, (s1)
    4140:	62 80 1d c1 	cmpne_i s3, s2, s27
    4144:	83 00 00 f4 	bnz s3, 16 <spawn_thread_internal+0x138>
    4148:	60 00 fd c0 	move s3, s26
    414c:	61 00 00 8a 	store_sync s3, (s1)  
    4150:	63 ff ff f3 	bz s3, -20 <spawn_thread_internal+0x120>
    4154:	42 00 00 10 	cmpeq_i s2, s2, 0
    4158:	42 04 00 01 	and s2, s2, 1
    415c:	c2 fe ff f3 	bz s2, -40 <spawn_thread_internal+0x118>
    4160:	59 50 00 a8 	load_32 s2, 20(s25)
    4164:	39 50 00 05 	add_i s1, s25, 20
    4168:	58 20 00 88 	store_32 s2, 8(s24)
    416c:	78 20 00 05 	add_i s3, s24, 8
    4170:	38 30 00 88 	store_32 s1, 12(s24)
    4174:	62 10 00 88 	store_32 s3, 4(s2)
    4178:	44 00 00 4f 	movehi s2, 4
    417c:	38 30 00 a8 	load_32 s1, 12(s24)
    4180:	42 e0 4c 00 	or s2, s2, 4920
    4184:	61 00 00 88 	store_32 s3, (s1)
    4188:	20 00 00 0f 	move s1, 0
    418c:	39 40 00 88 	store_32 s1, 16(s25)
    4190:	00 00 00 e8 	membar
    4194:	62 00 00 a8 	load_32 s3, (s2)
    4198:	e3 ff ff f5 	bnz s3, -4 <spawn_thread_internal+0x178>
    419c:	62 00 00 aa 	load_sync s3, (s2)
    41a0:	83 80 10 c1 	cmpne_i s4, s3, s1
    41a4:	84 00 00 f4 	bnz s4, 16 <spawn_thread_internal+0x198>
    41a8:	80 00 fd c0 	move s4, s26
    41ac:	82 00 00 8a 	store_sync s4, (s2)  
    41b0:	64 ff ff f3 	bz s4, -20 <spawn_thread_internal+0x180>
    41b4:	63 00 00 10 	cmpeq_i s3, s3, 0
    41b8:	63 04 00 01 	and s3, s3, 1
    41bc:	c3 fe ff f3 	bz s3, -40 <spawn_thread_internal+0x178>
    41c0:	64 00 00 4f 	movehi s3, 4
    41c4:	63 50 4c 00 	or s3, s3, 4884
    41c8:	83 00 00 a8 	load_32 s4, (s3)
    41cc:	98 00 00 88 	store_32 s4, (s24)
    41d0:	78 10 00 88 	store_32 s3, 4(s24)
    41d4:	04 13 00 88 	store_32 s24, 4(s4)
    41d8:	78 10 00 a8 	load_32 s3, 4(s24)
    41dc:	03 03 00 88 	store_32 s24, (s3)
    41e0:	22 00 00 88 	store_32 s1, (s2)
    41e4:	00 00 00 e8 	membar
    41e8:	42 fc ff f9 	call -3832 <restore_interrupts>
    41ec:	00 00 fc c0 	move s0, s24
    41f0:	fe b3 00 a8 	load_32 ra, 44(sp)
    41f4:	7e c3 00 a8 	load_32 s27, 48(sp)
    41f8:	5e d3 00 a8 	load_32 s26, 52(sp)
    41fc:	3e e3 00 a8 	load_32 s25, 56(sp)
    4200:	1e f3 00 a8 	load_32 s24, 60(sp)
    4204:	de 03 01 05 	add_i sp, sp, 64
    4208:	1f 00 00 f0 	ret

000000000000420c dec_proc_ref:
    420c:	de 03 fe 05 	add_i sp, sp, -128
    4210:	1e f3 01 88 	store_32 s24, 124(sp)
    4214:	fe e3 01 88 	store_32 ra, 120(sp)
    4218:	24 00 00 4f 	movehi s1, 4
    421c:	40 00 00 ac 	getcr s2, 0
    4220:	21 00 45 00 	or s1, s1, 4416
    4224:	42 08 00 0b 	shl s2, s2, 2
    4228:	21 00 51 c0 	add_i s1, s1, s2
    422c:	21 00 00 a8 	load_32 s1, (s1)
    4230:	21 90 00 a8 	load_32 s1, 36(s1)
    4234:	00 03 f0 c0 	move s24, s0
    4238:	01 00 1c c1 	cmpne_i s0, s1, s24
    423c:	40 00 00 f4 	bnz s0, 8 <dec_proc_ref+0x38>
    4240:	31 00 00 f6 	b 196 <dec_proc_ref+0xf8>
    4244:	18 00 00 aa 	load_sync s0, (s24)
    4248:	20 fc ff 05 	add_i s1, s0, -1
    424c:	00 00 f0 c0 	move s0, s0
    4250:	38 00 00 8a 	store_sync s1, (s24)  
    4254:	81 ff ff f3 	bz s1, -16 <dec_proc_ref+0x38>
    4258:	00 04 00 11 	cmpne_i s0, s0, 1
    425c:	c0 04 00 f4 	bnz s0, 152 <dec_proc_ref+0xe8>
    4260:	18 60 00 a8 	load_32 s0, 24(s24)
    4264:	38 50 00 05 	add_i s1, s24, 20
    4268:	00 80 00 c1 	cmpeq_i s0, s0, s1
    426c:	40 00 00 f4 	bnz s0, 8 <dec_proc_ref+0x68>
    4270:	2a 00 00 f6 	b 168 <dec_proc_ref+0x10c>
    4274:	17 fc ff f9 	call -4004 <disable_interrupts>
    4278:	24 00 00 4f 	movehi s1, 4
    427c:	60 04 00 0f 	move s3, 1
    4280:	40 00 00 0f 	move s2, 0
    4284:	21 f0 4c 00 	or s1, s1, 4924
    4288:	81 00 00 a8 	load_32 s4, (s1)
    428c:	e4 ff ff f5 	bnz s4, -4 <dec_proc_ref+0x7c>
    4290:	81 00 00 aa 	load_sync s4, (s1)
    4294:	a4 00 11 c1 	cmpne_i s5, s4, s2
    4298:	85 00 00 f4 	bnz s5, 16 <dec_proc_ref+0x9c>
    429c:	a0 80 f1 c0 	move s5, s3
    42a0:	a1 00 00 8a 	store_sync s5, (s1)  
    42a4:	65 ff ff f3 	bz s5, -20 <dec_proc_ref+0x84>
    42a8:	84 00 00 10 	cmpeq_i s4, s4, 0
    42ac:	84 04 00 01 	and s4, s4, 1
    42b0:	c4 fe ff f3 	bz s4, -40 <dec_proc_ref+0x7c>
    42b4:	78 10 00 a8 	load_32 s3, 4(s24)
    42b8:	98 00 00 a8 	load_32 s4, (s24)
    42bc:	64 10 00 88 	store_32 s3, 4(s4)
    42c0:	78 10 00 a8 	load_32 s3, 4(s24)
    42c4:	83 00 00 88 	store_32 s4, (s3)
    42c8:	58 10 00 88 	store_32 s2, 4(s24)
    42cc:	58 00 00 88 	store_32 s2, (s24)
    42d0:	41 00 00 88 	store_32 s2, (s1)
    42d4:	00 00 00 e8 	membar
    42d8:	06 fc ff f9 	call -4072 <restore_interrupts>
    42dc:	18 70 00 a8 	load_32 s0, 28(s24)
    42e0:	4c 0c 00 f8 	call 12592 <destroy_address_space>
    42e4:	04 00 00 4f 	movehi s0, 4
    42e8:	20 00 fc c0 	move s1, s24
    42ec:	00 20 40 00 	or s0, s0, 4104
    42f0:	46 fe ff f9 	call -1768 <slab_free>
    42f4:	fe e3 01 a8 	load_32 ra, 120(sp)
    42f8:	1e f3 01 a8 	load_32 s24, 124(sp)
    42fc:	de 03 02 05 	add_i sp, sp, 128
    4300:	1f 00 00 f0 	ret
    4304:	00 00 00 4f 	movehi s0, 0
    4308:	20 e0 02 0f 	move s1, 184
    430c:	3e 20 00 88 	store_32 s1, 8(sp)
    4310:	00 a0 0b 00 	or s0, s0, 744
    4314:	05 00 00 f6 	b 20 <dec_proc_ref+0x11c>
    4318:	00 00 00 4f 	movehi s0, 0
    431c:	20 f4 02 0f 	move s1, 189
    4320:	3e 20 00 88 	store_32 s1, 8(sp)
    4324:	00 24 11 00 	or s0, s0, 1097
    4328:	20 00 00 4f 	movehi s1, 0
    432c:	1e 30 00 88 	store_32 s0, 12(sp)
    4330:	00 00 00 4f 	movehi s0, 0
    4334:	21 80 0f 00 	or s1, s1, 992
    4338:	3e 10 00 88 	store_32 s1, 4(sp)
    433c:	00 7c 15 00 	or s0, s0, 1375
    4340:	1e 00 00 88 	store_32 s0, (sp)
    4344:	9b f9 ff f9 	call -6548 <panic>

0000000000004348 grim_reaper:
    4348:	de 03 fe 05 	add_i sp, sp, -128
    434c:	1e f3 01 88 	store_32 s24, 124(sp)
    4350:	3e e3 01 88 	store_32 s25, 120(sp)
    4354:	5e d3 01 88 	store_32 s26, 116(sp)
    4358:	7e c3 01 88 	store_32 s27, 112(sp)
    435c:	fe b3 01 88 	store_32 ra, 108(sp)
    4360:	04 00 00 4f 	movehi s0, 4
    4364:	24 00 00 4f 	movehi s1, 4
    4368:	00 07 00 0f 	move s24, 1
    436c:	60 e3 4c 00 	or s27, s0, 4920
    4370:	04 00 00 4f 	movehi s0, 4
    4374:	20 03 00 0f 	move s25, 0
    4378:	44 00 00 4f 	movehi s2, 4
    437c:	00 70 4c 00 	or s0, s0, 4892
    4380:	1e 90 01 88 	store_32 s0, 100(sp)
    4384:	01 00 45 00 	or s0, s1, 4416
    4388:	1e 80 01 88 	store_32 s0, 96(sp)
    438c:	02 80 40 00 	or s0, s2, 4128
    4390:	1e 70 01 88 	store_32 s0, 92(sp)
    4394:	0a 00 00 f6 	b 40 <grim_reaper+0x74>
    4398:	02 90 00 a8 	load_32 s0, 36(s2)
    439c:	00 70 00 a8 	load_32 s0, 28(s0)
    43a0:	22 70 00 a8 	load_32 s1, 28(s2)
    43a4:	ce 0d 00 f8 	call 14136 <destroy_area>
    43a8:	1e 70 01 a8 	load_32 s0, 92(sp)
    43ac:	3e a0 01 a8 	load_32 s1, 104(sp)
    43b0:	16 fe ff f9 	call -1960 <slab_free>
    43b4:	00 00 fd c0 	move s0, s26
    43b8:	95 ff ff f9 	call -428 <dec_proc_ref>
    43bc:	c5 fb ff f9 	call -4332 <disable_interrupts>
    43c0:	3b 00 00 a8 	load_32 s1, (s27)
    43c4:	e1 ff ff f5 	bnz s1, -4 <grim_reaper+0x78>
    43c8:	3b 00 00 aa 	load_sync s1, (s27)
    43cc:	41 80 1c c1 	cmpne_i s2, s1, s25
    43d0:	82 00 00 f4 	bnz s2, 16 <grim_reaper+0x98>
    43d4:	40 00 fc c0 	move s2, s24
    43d8:	5b 00 00 8a 	store_sync s2, (s27)  
    43dc:	62 ff ff f3 	bz s2, -20 <grim_reaper+0x80>
    43e0:	21 00 00 10 	cmpeq_i s1, s1, 0
    43e4:	21 04 00 01 	and s1, s1, 1
    43e8:	c1 fe ff f3 	bz s1, -40 <grim_reaper+0x78>
    43ec:	5e 90 01 a8 	load_32 s2, 100(sp)
    43f0:	22 10 00 a8 	load_32 s1, 4(s2)
    43f4:	40 83 fc c0 	move s26, s25
    43f8:	41 00 01 c1 	cmpeq_i s2, s1, s2
    43fc:	e2 00 00 f4 	bnz s2, 28 <grim_reaper+0xd0>
    4400:	41 10 00 a8 	load_32 s2, 4(s1)
    4404:	61 00 00 a8 	load_32 s3, (s1)
    4408:	43 10 00 88 	store_32 s2, 4(s3)
    440c:	41 10 00 a8 	load_32 s2, 4(s1)
    4410:	62 00 00 88 	store_32 s3, (s2)
    4414:	40 83 f0 c0 	move s26, s1
    4418:	3b 03 00 88 	store_32 s25, (s27)
    441c:	00 00 00 e8 	membar
    4420:	b4 fb ff f9 	call -4400 <restore_interrupts>
    4424:	5a 00 00 f4 	bnz s26, 8 <grim_reaper+0xe4>
    4428:	30 00 00 f6 	b 192 <grim_reaper+0x1a0>
    442c:	00 00 fd c0 	move s0, s26
    4430:	40 93 00 a8 	load_32 s26, 36(s0)
    4434:	1e a0 01 88 	store_32 s0, 104(sp)
    4438:	00 c0 00 a8 	load_32 s0, 48(s0)
    443c:	00 0c 00 10 	cmpeq_i s0, s0, 3
    4440:	40 00 00 f4 	bnz s0, 8 <grim_reaper+0x100>
    4444:	2b 00 00 f6 	b 172 <grim_reaper+0x1a8>
    4448:	a2 fb ff f9 	call -4472 <disable_interrupts>
    444c:	3a 40 00 a8 	load_32 s1, 16(s26)
    4450:	e1 ff ff f5 	bnz s1, -4 <grim_reaper+0x104>
    4454:	3a 40 00 05 	add_i s1, s26, 16
    4458:	41 00 00 aa 	load_sync s2, (s1)
    445c:	62 80 1c c1 	cmpne_i s3, s2, s25
    4460:	83 00 00 f4 	bnz s3, 16 <grim_reaper+0x128>
    4464:	60 00 fc c0 	move s3, s24
    4468:	61 00 00 8a 	store_sync s3, (s1)  
    446c:	63 ff ff f3 	bz s3, -20 <grim_reaper+0x110>
    4470:	22 00 00 10 	cmpeq_i s1, s2, 0
    4474:	21 04 00 01 	and s1, s1, 1
    4478:	a1 fe ff f3 	bz s1, -44 <grim_reaper+0x104>
    447c:	7e a0 01 a8 	load_32 s3, 104(sp)
    4480:	23 30 00 a8 	load_32 s1, 12(s3)
    4484:	43 20 00 a8 	load_32 s2, 8(s3)
    4488:	22 10 00 88 	store_32 s1, 4(s2)
    448c:	23 30 00 a8 	load_32 s1, 12(s3)
    4490:	41 00 00 88 	store_32 s2, (s1)
    4494:	23 33 00 88 	store_32 s25, 12(s3)
    4498:	23 23 00 88 	store_32 s25, 8(s3)
    449c:	3a 43 00 88 	store_32 s25, 16(s26)
    44a0:	00 00 00 e8 	membar
    44a4:	93 fb ff f9 	call -4532 <restore_interrupts>
    44a8:	5e a0 01 a8 	load_32 s2, 104(sp)
    44ac:	00 00 00 ac 	getcr s0, 0
    44b0:	3e 80 01 a8 	load_32 s1, 96(sp)
    44b4:	00 08 00 0b 	shl s0, s0, 2
    44b8:	01 00 50 c0 	add_i s0, s1, s0
    44bc:	00 00 00 a8 	load_32 s0, (s0)
    44c0:	00 00 11 c1 	cmpne_i s0, s0, s2
    44c4:	40 00 00 f4 	bnz s0, 8 <grim_reaper+0x184>
    44c8:	0f 00 00 f6 	b 60 <grim_reaper+0x1bc>
    44cc:	22 80 00 a8 	load_32 s1, 32(s2)
    44d0:	41 f6 ff f3 	bz s1, -312 <grim_reaper+0x50>
    44d4:	02 90 00 a8 	load_32 s0, 36(s2)
    44d8:	00 70 00 a8 	load_32 s0, 28(s0)
    44dc:	80 0d 00 f8 	call 13824 <destroy_area>
    44e0:	5e a0 01 a8 	load_32 s2, 104(sp)
    44e4:	ad ff ff f7 	b -332 <grim_reaper+0x50>
    44e8:	13 00 00 f8 	call 76 <reschedule>
    44ec:	b4 ff ff f7 	b -304 <grim_reaper+0x74>
    44f0:	00 00 00 4f 	movehi s0, 0
    44f4:	20 78 02 0f 	move s1, 158
    44f8:	3e 20 00 88 	store_32 s1, 8(sp)
    44fc:	00 1c 0f 00 	or s0, s0, 967
    4500:	05 00 00 f6 	b 20 <grim_reaper+0x1cc>
    4504:	00 00 00 4f 	movehi s0, 0
    4508:	20 98 02 0f 	move s1, 166
    450c:	3e 20 00 88 	store_32 s1, 8(sp)
    4510:	00 2c 19 00 	or s0, s0, 1611
    4514:	20 00 00 4f 	movehi s1, 0
    4518:	1e 30 00 88 	store_32 s0, 12(sp)
    451c:	00 00 00 4f 	movehi s0, 0
    4520:	21 80 0f 00 	or s1, s1, 992
    4524:	3e 10 00 88 	store_32 s1, 4(sp)
    4528:	00 7c 15 00 	or s0, s0, 1375
    452c:	1e 00 00 88 	store_32 s0, (sp)
    4530:	20 f9 ff f9 	call -7040 <panic>

0000000000004534 reschedule:
    4534:	de 03 fe 05 	add_i sp, sp, -128
    4538:	1e f3 01 88 	store_32 s24, 124(sp)
    453c:	3e e3 01 88 	store_32 s25, 120(sp)
    4540:	5e d3 01 88 	store_32 s26, 116(sp)
    4544:	7e c3 01 88 	store_32 s27, 112(sp)
    4548:	fe b3 01 88 	store_32 ra, 108(sp)
    454c:	04 00 00 4f 	movehi s0, 4
    4550:	20 00 00 ac 	getcr s1, 0
    4554:	00 00 4d 00 	or s0, s0, 4928
    4558:	61 0b 00 0b 	shl s27, s1, 2
    455c:	00 80 5d c0 	add_i s0, s0, s27
    4560:	00 00 00 a8 	load_32 s0, (s0)
    4564:	40 00 00 f2 	bz s0, 8 <reschedule+0x38>
    4568:	57 00 00 f6 	b 348 <reschedule+0x190>
    456c:	59 fb ff f9 	call -4764 <disable_interrupts>
    4570:	24 00 00 4f 	movehi s1, 4
    4574:	80 00 f0 c0 	move s4, s0
    4578:	00 04 00 0f 	move s0, 1
    457c:	21 e3 4c 00 	or s25, s1, 4920
    4580:	40 03 00 0f 	move s26, 0
    4584:	39 00 00 a8 	load_32 s1, (s25)
    4588:	e1 ff ff f5 	bnz s1, -4 <reschedule+0x50>
    458c:	39 00 00 aa 	load_sync s1, (s25)
    4590:	41 00 1d c1 	cmpne_i s2, s1, s26
    4594:	82 00 00 f4 	bnz s2, 16 <reschedule+0x70>
    4598:	40 00 f0 c0 	move s2, s0
    459c:	59 00 00 8a 	store_sync s2, (s25)  
    45a0:	62 ff ff f3 	bz s2, -20 <reschedule+0x58>
    45a4:	21 00 00 10 	cmpeq_i s1, s1, 0
    45a8:	21 04 00 01 	and s1, s1, 1
    45ac:	c1 fe ff f3 	bz s1, -40 <reschedule+0x50>
    45b0:	24 00 00 4f 	movehi s1, 4
    45b4:	21 00 45 00 	or s1, s1, 4416
    45b8:	21 80 5d c0 	add_i s1, s1, s27
    45bc:	01 03 00 a8 	load_32 s24, (s1)
    45c0:	58 c0 00 a8 	load_32 s2, 48(s24)
    45c4:	a0 80 fd c0 	move s5, s27
    45c8:	62 04 00 10 	cmpeq_i s3, s2, 1
    45cc:	e3 00 00 f4 	bnz s3, 28 <reschedule+0xb4>
    45d0:	e2 01 00 f4 	bnz s2, 60 <reschedule+0xd8>
    45d4:	00 00 00 4f 	movehi s0, 0
    45d8:	20 78 04 0f 	move s1, 286
    45dc:	3e 20 00 88 	store_32 s1, 8(sp)
    45e0:	00 e8 1c 00 	or s0, s0, 1850
    45e4:	3c 00 00 f6 	b 240 <reschedule+0x1a0>
    45e8:	44 00 00 4f 	movehi s2, 4
    45ec:	58 c3 00 88 	store_32 s26, 48(s24)
    45f0:	42 50 4c 00 	or s2, s2, 4884
    45f4:	62 00 00 a8 	load_32 s3, (s2)
    45f8:	78 00 00 88 	store_32 s3, (s24)
    45fc:	58 10 00 88 	store_32 s2, 4(s24)
    4600:	03 13 00 88 	store_32 s24, 4(s3)
    4604:	58 10 00 a8 	load_32 s2, 4(s24)
    4608:	02 03 00 88 	store_32 s24, (s2)
    460c:	44 00 00 4f 	movehi s2, 4
    4610:	42 50 4c 00 	or s2, s2, 4884
    4614:	62 13 00 a8 	load_32 s27, 4(s2)
    4618:	5b 00 01 c1 	cmpeq_i s2, s27, s2
    461c:	a2 04 00 f4 	bnz s2, 148 <reschedule+0x17c>
    4620:	5b 10 00 a8 	load_32 s2, 4(s27)
    4624:	7b 00 00 a8 	load_32 s3, (s27)
    4628:	43 10 00 88 	store_32 s2, 4(s3)
    462c:	5b 10 00 a8 	load_32 s2, 4(s27)
    4630:	62 00 00 88 	store_32 s3, (s2)
    4634:	5b 00 00 f4 	bnz s27, 8 <reschedule+0x108>
    4638:	1e 00 00 f6 	b 120 <reschedule+0x17c>
    463c:	58 80 0d c1 	cmpeq_i s2, s24, s27
    4640:	1b c0 00 88 	store_32 s0, 48(s27)
    4644:	02 02 00 f4 	bnz s2, 64 <reschedule+0x150>
    4648:	04 00 00 4f 	movehi s0, 4
    464c:	61 03 00 88 	store_32 s27, (s1)
    4650:	3b 50 00 a8 	load_32 s1, 20(s27)
    4654:	00 00 47 00 	or s0, s0, 4544
    4658:	00 80 52 c0 	add_i s0, s0, s5
    465c:	20 00 00 88 	store_32 s1, (s0)
    4660:	1b 90 00 a8 	load_32 s0, 36(s27)
    4664:	00 70 00 a8 	load_32 s0, 28(s0)
    4668:	00 b0 00 a8 	load_32 s0, 44(s0)
    466c:	9e a0 01 88 	store_32 s4, 104(sp)
    4670:	1a 08 00 f8 	call 8296 <switch_to_translation_map>
    4674:	3b 60 00 a8 	load_32 s1, 24(s27)
    4678:	18 60 00 05 	add_i s0, s24, 24
    467c:	82 fd ff f9 	call -2552 <context_switch>
    4680:	9e a0 01 a8 	load_32 s4, 104(sp)
    4684:	59 03 00 88 	store_32 s26, (s25)
    4688:	00 00 00 e8 	membar
    468c:	00 00 f2 c0 	move s0, s4
    4690:	18 fb ff f9 	call -5024 <restore_interrupts>
    4694:	fe b3 01 a8 	load_32 ra, 108(sp)
    4698:	7e c3 01 a8 	load_32 s27, 112(sp)
    469c:	5e d3 01 a8 	load_32 s26, 116(sp)
    46a0:	3e e3 01 a8 	load_32 s25, 120(sp)
    46a4:	1e f3 01 a8 	load_32 s24, 124(sp)
    46a8:	de 03 02 05 	add_i sp, sp, 128
    46ac:	1f 00 00 f0 	ret
    46b0:	00 00 00 4f 	movehi s0, 0
    46b4:	20 9c 04 0f 	move s1, 295
    46b8:	3e 20 00 88 	store_32 s1, 8(sp)
    46bc:	00 1c 1a 00 	or s0, s0, 1671
    46c0:	05 00 00 f6 	b 20 <reschedule+0x1a0>
    46c4:	00 00 00 4f 	movehi s0, 0
    46c8:	20 60 04 0f 	move s1, 280
    46cc:	3e 20 00 88 	store_32 s1, 8(sp)
    46d0:	00 fc 15 00 	or s0, s0, 1407
    46d4:	20 00 00 4f 	movehi s1, 0
    46d8:	1e 30 00 88 	store_32 s0, 12(sp)
    46dc:	00 00 00 4f 	movehi s0, 0
    46e0:	21 80 0f 00 	or s1, s1, 992
    46e4:	3e 10 00 88 	store_32 s1, 4(sp)
    46e8:	00 7c 15 00 	or s0, s0, 1375
    46ec:	1e 00 00 88 	store_32 s0, (sp)
    46f0:	b0 f8 ff f9 	call -7488 <panic>

00000000000046f4 spawn_user_thread:
    46f4:	de 03 ff 05 	add_i sp, sp, -64
    46f8:	fe f3 00 88 	store_32 ra, 60(sp)
    46fc:	60 00 f1 c0 	move s3, s2
    4700:	42 00 00 4f 	movehi s2, 2
    4704:	80 00 00 0f 	move s4, 0
    4708:	42 80 1c 00 	or s2, s2, 1824
    470c:	a0 00 f2 c0 	move s5, s4
    4710:	43 fe ff f9 	call -1780 <spawn_thread_internal>
    4714:	fe f3 00 a8 	load_32 ra, 60(sp)
    4718:	de 03 01 05 	add_i sp, sp, 64
    471c:	1f 00 00 f0 	ret

0000000000004720 user_thread_kernel_start:
    4720:	de 03 ff 05 	add_i sp, sp, -64
    4724:	1e f3 00 88 	store_32 s24, 60(sp)
    4728:	3e e3 00 88 	store_32 s25, 56(sp)
    472c:	fe d3 00 88 	store_32 ra, 52(sp)
    4730:	24 00 00 4f 	movehi s1, 4
    4734:	00 00 00 ac 	getcr s0, 0
    4738:	44 00 00 4f 	movehi s2, 4
    473c:	00 03 00 0f 	move s24, 0
    4740:	21 00 45 00 	or s1, s1, 4416
    4744:	00 08 00 0b 	shl s0, s0, 2
    4748:	01 00 50 c0 	add_i s0, s1, s0
    474c:	22 e0 4c 00 	or s1, s2, 4920
    4750:	20 03 00 a8 	load_32 s25, (s0)
    4754:	00 1c 00 0f 	move s0, 7
    4758:	01 03 00 88 	store_32 s24, (s1)
    475c:	00 00 00 e8 	membar
    4760:	e4 fa ff f9 	call -5232 <restore_interrupts>
    4764:	59 a0 00 a8 	load_32 s2, 40(s25)
    4768:	19 80 00 a8 	load_32 s0, 32(s25)
    476c:	00 30 00 a8 	load_32 s0, 12(s0)
    4770:	60 04 00 05 	add_i s3, s0, 1
    4774:	00 00 fc c0 	move s0, s24
    4778:	20 00 fc c0 	move s1, s24
    477c:	b1 fa ff f9 	call -5436 <jump_to_user_mode>

0000000000004780 spawn_kernel_thread:
    4780:	de 03 ff 05 	add_i sp, sp, -64
    4784:	fe f3 00 88 	store_32 ra, 60(sp)
    4788:	64 00 00 4f 	movehi s3, 4
    478c:	80 00 f1 c0 	move s4, s2
    4790:	42 00 00 4f 	movehi s2, 2
    4794:	a3 b0 4c 00 	or s5, s3, 4908
    4798:	60 80 f0 c0 	move s3, s1
    479c:	42 e0 1e 00 	or s2, s2, 1976
    47a0:	25 00 00 a8 	load_32 s1, (s5)
    47a4:	a0 04 00 0f 	move s5, 1
    47a8:	1d fe ff f9 	call -1932 <spawn_thread_internal>
    47ac:	fe f3 00 a8 	load_32 ra, 60(sp)
    47b0:	de 03 01 05 	add_i sp, sp, 64
    47b4:	1f 00 00 f0 	ret

00000000000047b8 kernel_thread_kernel_start:
    47b8:	de 03 ff 05 	add_i sp, sp, -64
    47bc:	1e f3 00 88 	store_32 s24, 60(sp)
    47c0:	fe e3 00 88 	store_32 ra, 56(sp)
    47c4:	24 00 00 4f 	movehi s1, 4
    47c8:	00 00 00 ac 	getcr s0, 0
    47cc:	44 00 00 4f 	movehi s2, 4
    47d0:	21 00 45 00 	or s1, s1, 4416
    47d4:	00 08 00 0b 	shl s0, s0, 2
    47d8:	01 00 50 c0 	add_i s0, s1, s0
    47dc:	22 e0 4c 00 	or s1, s2, 4920
    47e0:	00 03 00 a8 	load_32 s24, (s0)
    47e4:	00 00 00 0f 	move s0, 0
    47e8:	01 00 00 88 	store_32 s0, (s1)
    47ec:	00 1c 00 0f 	move s0, 7
    47f0:	00 00 00 e8 	membar
    47f4:	bf fa ff f9 	call -5380 <restore_interrupts>
    47f8:	38 a0 00 a8 	load_32 s1, 40(s24)
    47fc:	18 b0 00 a8 	load_32 s0, 44(s24)
    4800:	21 00 00 fc 	call s1
    4804:	81 00 00 f8 	call 516 <thread_exit>

0000000000004808 disable_preempt:
    4808:	04 00 00 4f 	movehi s0, 4
    480c:	20 00 00 ac 	getcr s1, 0
    4810:	00 00 4d 00 	or s0, s0, 4928
    4814:	21 08 00 0b 	shl s1, s1, 2
    4818:	00 80 50 c0 	add_i s0, s0, s1
    481c:	20 00 00 aa 	load_sync s1, (s0)
    4820:	41 04 00 05 	add_i s2, s1, 1
    4824:	20 80 f0 c0 	move s1, s1
    4828:	40 00 00 8a 	store_sync s2, (s0)  
    482c:	82 ff ff f3 	bz s2, -16 <disable_preempt+0x14>
    4830:	1f 00 00 f0 	ret

0000000000004834 enable_preempt:
    4834:	04 00 00 4f 	movehi s0, 4
    4838:	20 00 00 ac 	getcr s1, 0
    483c:	00 00 4d 00 	or s0, s0, 4928
    4840:	21 08 00 0b 	shl s1, s1, 2
    4844:	00 80 50 c0 	add_i s0, s0, s1
    4848:	20 00 00 aa 	load_sync s1, (s0)
    484c:	41 fc ff 05 	add_i s2, s1, -1
    4850:	20 80 f0 c0 	move s1, s1
    4854:	40 00 00 8a 	store_sync s2, (s0)  
    4858:	82 ff ff f3 	bz s2, -16 <enable_preempt+0x14>
    485c:	1f 00 00 f0 	ret

0000000000004860 exec_program:
    4860:	de 03 fe 05 	add_i sp, sp, -128
    4864:	1e f3 01 88 	store_32 s24, 124(sp)
    4868:	3e e3 01 88 	store_32 s25, 120(sp)
    486c:	5e d3 01 88 	store_32 s26, 116(sp)
    4870:	fe c3 01 88 	store_32 ra, 112(sp)
    4874:	20 03 f0 c0 	move s25, s0
    4878:	04 00 00 4f 	movehi s0, 4
    487c:	00 20 40 00 	or s0, s0, 4104
    4880:	a7 fc ff f9 	call -3428 <slab_alloc>
    4884:	24 00 00 4f 	movehi s1, 4
    4888:	00 03 f0 c0 	move s24, s0
    488c:	01 c0 4c 00 	or s0, s1, 4912
    4890:	20 00 00 aa 	load_sync s1, (s0)
    4894:	41 04 00 05 	add_i s2, s1, 1
    4898:	20 80 f0 c0 	move s1, s1
    489c:	40 00 00 8a 	store_sync s2, (s0)  
    48a0:	82 ff ff f3 	bz s2, -16 <exec_program+0x30>
    48a4:	38 30 00 88 	store_32 s1, 12(s24)
    48a8:	c5 0a 00 f8 	call 11028 <create_address_space>
    48ac:	18 70 00 88 	store_32 s0, 28(s24)
    48b0:	00 08 00 0f 	move s0, 2
    48b4:	40 03 00 0f 	move s26, 0
    48b8:	58 43 00 88 	store_32 s26, 16(s24)
    48bc:	18 00 00 88 	store_32 s0, (s24)
    48c0:	18 50 00 05 	add_i s0, s24, 20
    48c4:	18 60 00 88 	store_32 s0, 24(s24)
    48c8:	18 50 00 88 	store_32 s0, 20(s24)
    48cc:	81 fa ff f9 	call -5628 <disable_interrupts>
    48d0:	24 00 00 4f 	movehi s1, 4
    48d4:	40 04 00 0f 	move s2, 1
    48d8:	21 f0 4c 00 	or s1, s1, 4924
    48dc:	61 00 00 a8 	load_32 s3, (s1)
    48e0:	e3 ff ff f5 	bnz s3, -4 <exec_program+0x7c>
    48e4:	61 00 00 aa 	load_sync s3, (s1)
    48e8:	83 00 1d c1 	cmpne_i s4, s3, s26
    48ec:	84 00 00 f4 	bnz s4, 16 <exec_program+0x9c>
    48f0:	80 00 f1 c0 	move s4, s2
    48f4:	81 00 00 8a 	store_sync s4, (s1)  
    48f8:	64 ff ff f3 	bz s4, -20 <exec_program+0x84>
    48fc:	63 00 00 10 	cmpeq_i s3, s3, 0
    4900:	63 04 00 01 	and s3, s3, 1
    4904:	c3 fe ff f3 	bz s3, -40 <exec_program+0x7c>
    4908:	44 00 00 4f 	movehi s2, 4
    490c:	42 90 4c 00 	or s2, s2, 4900
    4910:	62 00 00 a8 	load_32 s3, (s2)
    4914:	78 00 00 88 	store_32 s3, (s24)
    4918:	58 10 00 88 	store_32 s2, 4(s24)
    491c:	03 13 00 88 	store_32 s24, 4(s3)
    4920:	58 10 00 a8 	load_32 s2, 4(s24)
    4924:	02 03 00 88 	store_32 s24, (s2)
    4928:	41 03 00 88 	store_32 s26, (s1)
    492c:	00 00 00 e8 	membar
    4930:	70 fa ff f9 	call -5696 <restore_interrupts>
    4934:	00 00 fc c0 	move s0, s24
    4938:	5e b0 01 05 	add_i s2, sp, 108
    493c:	20 80 fc c0 	move s1, s25
    4940:	fb 00 00 f8 	call 1004 <load_program>
    4944:	00 fc ff 12 	cmpgt_i s0, s0, -1
    4948:	40 00 00 f4 	bnz s0, 8 <exec_program+0xf0>
    494c:	0c 00 00 f6 	b 48 <exec_program+0x11c>
    4950:	00 00 00 4f 	movehi s0, 0
    4954:	7e b0 01 a8 	load_32 s3, 108(sp)
    4958:	22 00 00 4f 	movehi s1, 2
    495c:	80 00 00 0f 	move s4, 0
    4960:	00 e8 20 00 	or s0, s0, 2106
    4964:	41 a0 26 00 	or s2, s1, 2472
    4968:	20 00 fc c0 	move s1, s24
    496c:	a0 00 f2 c0 	move s5, s4
    4970:	ab fd ff f9 	call -2388 <spawn_thread_internal>
    4974:	40 03 fc c0 	move s26, s24
    4978:	05 00 00 f6 	b 20 <exec_program+0x12c>
    497c:	00 00 00 4f 	movehi s0, 0
    4980:	00 24 1f 00 	or s0, s0, 1993
    4984:	1e 00 00 88 	store_32 s0, (sp)
    4988:	3c f6 ff f9 	call -10000 <kprintf>
    498c:	00 00 fd c0 	move s0, s26
    4990:	fe c3 01 a8 	load_32 ra, 112(sp)
    4994:	5e d3 01 a8 	load_32 s26, 116(sp)
    4998:	3e e3 01 a8 	load_32 s25, 120(sp)
    499c:	1e f3 01 a8 	load_32 s24, 124(sp)
    49a0:	de 03 02 05 	add_i sp, sp, 128
    49a4:	1f 00 00 f0 	ret

00000000000049a8 new_process_start:
    49a8:	de 03 ff 05 	add_i sp, sp, -64
    49ac:	1e f3 00 88 	store_32 s24, 60(sp)
    49b0:	3e e3 00 88 	store_32 s25, 56(sp)
    49b4:	fe d3 00 88 	store_32 ra, 52(sp)
    49b8:	24 00 00 4f 	movehi s1, 4
    49bc:	00 00 00 ac 	getcr s0, 0
    49c0:	44 00 00 4f 	movehi s2, 4
    49c4:	00 03 00 0f 	move s24, 0
    49c8:	21 00 45 00 	or s1, s1, 4416
    49cc:	00 08 00 0b 	shl s0, s0, 2
    49d0:	01 00 50 c0 	add_i s0, s1, s0
    49d4:	22 e0 4c 00 	or s1, s2, 4920
    49d8:	20 03 00 a8 	load_32 s25, (s0)
    49dc:	00 1c 00 0f 	move s0, 7
    49e0:	01 03 00 88 	store_32 s24, (s1)
    49e4:	00 00 00 e8 	membar
    49e8:	42 fa ff f9 	call -5880 <restore_interrupts>
    49ec:	59 a0 00 a8 	load_32 s2, 40(s25)
    49f0:	19 80 00 a8 	load_32 s0, 32(s25)
    49f4:	00 30 00 a8 	load_32 s0, 12(s0)
    49f8:	60 04 00 05 	add_i s3, s0, 1
    49fc:	00 00 fc c0 	move s0, s24
    4a00:	20 00 fc c0 	move s1, s24
    4a04:	0f fa ff f9 	call -6084 <jump_to_user_mode>

0000000000004a08 thread_exit:
    4a08:	de 03 fe 05 	add_i sp, sp, -128
    4a0c:	1e f3 01 88 	store_32 s24, 124(sp)
    4a10:	fe e3 01 88 	store_32 ra, 120(sp)
    4a14:	04 00 00 4f 	movehi s0, 4
    4a18:	20 00 00 ac 	getcr s1, 0
    4a1c:	00 00 45 00 	or s0, s0, 4416
    4a20:	21 08 00 0b 	shl s1, s1, 2
    4a24:	00 80 50 c0 	add_i s0, s0, s1
    4a28:	00 03 00 a8 	load_32 s24, (s0)
    4a2c:	29 fa ff f9 	call -5980 <disable_interrupts>
    4a30:	04 00 00 4f 	movehi s0, 4
    4a34:	40 04 00 0f 	move s2, 1
    4a38:	20 00 00 0f 	move s1, 0
    4a3c:	00 e0 4c 00 	or s0, s0, 4920
    4a40:	60 00 00 a8 	load_32 s3, (s0)
    4a44:	e3 ff ff f5 	bnz s3, -4 <thread_exit+0x38>
    4a48:	60 00 00 aa 	load_sync s3, (s0)
    4a4c:	83 80 10 c1 	cmpne_i s4, s3, s1
    4a50:	84 00 00 f4 	bnz s4, 16 <thread_exit+0x58>
    4a54:	80 00 f1 c0 	move s4, s2
    4a58:	80 00 00 8a 	store_sync s4, (s0)  
    4a5c:	64 ff ff f3 	bz s4, -20 <thread_exit+0x40>
    4a60:	63 00 00 10 	cmpeq_i s3, s3, 0
    4a64:	63 04 00 01 	and s3, s3, 1
    4a68:	c3 fe ff f3 	bz s3, -40 <thread_exit+0x38>
    4a6c:	44 00 00 4f 	movehi s2, 4
    4a70:	42 70 4c 00 	or s2, s2, 4892
    4a74:	62 00 00 a8 	load_32 s3, (s2)
    4a78:	78 00 00 88 	store_32 s3, (s24)
    4a7c:	58 10 00 88 	store_32 s2, 4(s24)
    4a80:	03 13 00 88 	store_32 s24, 4(s3)
    4a84:	58 10 00 a8 	load_32 s2, 4(s24)
    4a88:	02 03 00 88 	store_32 s24, (s2)
    4a8c:	20 00 00 88 	store_32 s1, (s0)
    4a90:	00 0c 00 0f 	move s0, 3
    4a94:	00 00 00 e8 	membar
    4a98:	18 c0 00 88 	store_32 s0, 48(s24)
    4a9c:	a6 fe ff f9 	call -1384 <reschedule>
    4aa0:	00 00 00 4f 	movehi s0, 0
    4aa4:	00 1c 0c 00 	or s0, s0, 775
    4aa8:	1e 00 00 88 	store_32 s0, (sp)
    4aac:	c1 f7 ff f9 	call -8444 <panic>

0000000000004ab0 make_thread_ready:
    4ab0:	de 03 fe 05 	add_i sp, sp, -128
    4ab4:	1e f3 01 88 	store_32 s24, 124(sp)
    4ab8:	fe e3 01 88 	store_32 ra, 120(sp)
    4abc:	00 03 f0 c0 	move s24, s0
    4ac0:	18 c0 00 a8 	load_32 s0, 48(s24)
    4ac4:	20 0c 00 10 	cmpeq_i s1, s0, 3
    4ac8:	a1 04 00 f4 	bnz s1, 148 <make_thread_ready+0xac>
    4acc:	20 04 00 10 	cmpeq_i s1, s0, 1
    4ad0:	01 05 00 f4 	bnz s1, 160 <make_thread_ready+0xc0>
    4ad4:	40 00 00 f4 	bnz s0, 8 <make_thread_ready+0x2c>
    4ad8:	2b 00 00 f6 	b 172 <make_thread_ready+0xd4>
    4adc:	fd f9 ff f9 	call -6156 <disable_interrupts>
    4ae0:	24 00 00 4f 	movehi s1, 4
    4ae4:	60 04 00 0f 	move s3, 1
    4ae8:	40 00 00 0f 	move s2, 0
    4aec:	21 e0 4c 00 	or s1, s1, 4920
    4af0:	81 00 00 a8 	load_32 s4, (s1)
    4af4:	e4 ff ff f5 	bnz s4, -4 <make_thread_ready+0x40>
    4af8:	81 00 00 aa 	load_sync s4, (s1)
    4afc:	a4 00 11 c1 	cmpne_i s5, s4, s2
    4b00:	85 00 00 f4 	bnz s5, 16 <make_thread_ready+0x60>
    4b04:	a0 80 f1 c0 	move s5, s3
    4b08:	a1 00 00 8a 	store_sync s5, (s1)  
    4b0c:	65 ff ff f3 	bz s5, -20 <make_thread_ready+0x48>
    4b10:	84 00 00 10 	cmpeq_i s4, s4, 0
    4b14:	84 04 00 01 	and s4, s4, 1
    4b18:	c4 fe ff f3 	bz s4, -40 <make_thread_ready+0x40>
    4b1c:	64 00 00 4f 	movehi s3, 4
    4b20:	58 c0 00 88 	store_32 s2, 48(s24)
    4b24:	63 50 4c 00 	or s3, s3, 4884
    4b28:	83 00 00 a8 	load_32 s4, (s3)
    4b2c:	98 00 00 88 	store_32 s4, (s24)
    4b30:	78 10 00 88 	store_32 s3, 4(s24)
    4b34:	04 13 00 88 	store_32 s24, 4(s4)
    4b38:	78 10 00 a8 	load_32 s3, 4(s24)
    4b3c:	03 03 00 88 	store_32 s24, (s3)
    4b40:	41 00 00 88 	store_32 s2, (s1)
    4b44:	00 00 00 e8 	membar
    4b48:	ea f9 ff f9 	call -6232 <restore_interrupts>
    4b4c:	fe e3 01 a8 	load_32 ra, 120(sp)
    4b50:	1e f3 01 a8 	load_32 s24, 124(sp)
    4b54:	de 03 02 05 	add_i sp, sp, 128
    4b58:	1f 00 00 f0 	ret
    4b5c:	00 00 00 4f 	movehi s0, 0
    4b60:	20 1c 06 0f 	move s1, 391
    4b64:	3e 20 00 88 	store_32 s1, 8(sp)
    4b68:	00 84 1b 00 	or s0, s0, 1761
    4b6c:	0a 00 00 f6 	b 40 <make_thread_ready+0xe4>
    4b70:	00 00 00 4f 	movehi s0, 0
    4b74:	20 18 06 0f 	move s1, 390
    4b78:	3e 20 00 88 	store_32 s1, 8(sp)
    4b7c:	00 ec 04 00 	or s0, s0, 315
    4b80:	05 00 00 f6 	b 20 <make_thread_ready+0xe4>
    4b84:	00 00 00 4f 	movehi s0, 0
    4b88:	20 14 06 0f 	move s1, 389
    4b8c:	3e 20 00 88 	store_32 s1, 8(sp)
    4b90:	00 ec 1d 00 	or s0, s0, 1915
    4b94:	20 00 00 4f 	movehi s1, 0
    4b98:	1e 30 00 88 	store_32 s0, 12(sp)
    4b9c:	00 00 00 4f 	movehi s0, 0
    4ba0:	21 80 0f 00 	or s1, s1, 992
    4ba4:	3e 10 00 88 	store_32 s1, 4(sp)
    4ba8:	00 7c 15 00 	or s0, s0, 1375
    4bac:	1e 00 00 88 	store_32 s0, (sp)
    4bb0:	80 f7 ff f9 	call -8704 <panic>

0000000000004bb4 dump_process_list:
    4bb4:	de 03 fe 05 	add_i sp, sp, -128
    4bb8:	1e f3 01 88 	store_32 s24, 124(sp)
    4bbc:	3e e3 01 88 	store_32 s25, 120(sp)
    4bc0:	5e d3 01 88 	store_32 s26, 116(sp)
    4bc4:	7e c3 01 88 	store_32 s27, 112(sp)
    4bc8:	fe b3 01 88 	store_32 ra, 108(sp)
    4bcc:	00 00 00 4f 	movehi s0, 0
    4bd0:	00 28 09 00 	or s0, s0, 586
    4bd4:	1e 00 00 88 	store_32 s0, (sp)
    4bd8:	a8 f5 ff f9 	call -10592 <kprintf>
    4bdc:	bd f9 ff f9 	call -6412 <disable_interrupts>
    4be0:	24 00 00 4f 	movehi s1, 4
    4be4:	1e 60 01 88 	store_32 s0, 88(sp)
    4be8:	20 07 00 0f 	move s25, 1
    4bec:	60 00 00 0f 	move s3, 0
    4bf0:	41 f0 4c 00 	or s2, s1, 4924
    4bf4:	02 00 00 a8 	load_32 s0, (s2)
    4bf8:	e0 ff ff f5 	bnz s0, -4 <dump_process_list+0x40>
    4bfc:	02 00 00 aa 	load_sync s0, (s2)
    4c00:	20 80 11 c1 	cmpne_i s1, s0, s3
    4c04:	81 00 00 f4 	bnz s1, 16 <dump_process_list+0x60>
    4c08:	20 80 fc c0 	move s1, s25
    4c0c:	22 00 00 8a 	store_sync s1, (s2)  
    4c10:	61 ff ff f3 	bz s1, -20 <dump_process_list+0x48>
    4c14:	00 00 00 10 	cmpeq_i s0, s0, 0
    4c18:	00 04 00 01 	and s0, s0, 1
    4c1c:	c0 fe ff f3 	bz s0, -40 <dump_process_list+0x40>
    4c20:	04 00 00 4f 	movehi s0, 4
    4c24:	5e 50 01 88 	store_32 s2, 84(sp)
    4c28:	00 90 4c 00 	or s0, s0, 4900
    4c2c:	00 13 00 a8 	load_32 s24, 4(s0)
    4c30:	1e 90 01 88 	store_32 s0, 100(sp)
    4c34:	18 00 00 c1 	cmpeq_i s0, s24, s0
    4c38:	20 06 00 f4 	bnz s0, 196 <dump_process_list+0x148>
    4c3c:	20 00 00 4f 	movehi s1, 0
    4c40:	00 00 00 4f 	movehi s0, 0
    4c44:	41 a7 0f 00 	or s26, s1, 1001
    4c48:	00 2c 0b 00 	or s0, s0, 715
    4c4c:	1e 70 01 88 	store_32 s0, 92(sp)
    4c50:	3e 83 01 88 	store_32 s25, 96(sp)
    4c54:	7e a0 01 88 	store_32 s3, 104(sp)
    4c58:	18 30 00 a8 	load_32 s0, 12(s24)
    4c5c:	1e 10 00 88 	store_32 s0, 4(sp)
    4c60:	1e 70 01 a8 	load_32 s0, 92(sp)
    4c64:	1e 00 00 88 	store_32 s0, (sp)
    4c68:	84 f5 ff f9 	call -10736 <kprintf>
    4c6c:	7e a0 01 a8 	load_32 s3, 104(sp)
    4c70:	18 40 00 a8 	load_32 s0, 16(s24)
    4c74:	e0 ff ff f5 	bnz s0, -4 <dump_process_list+0xbc>
    4c78:	18 40 00 05 	add_i s0, s24, 16
    4c7c:	20 00 00 aa 	load_sync s1, (s0)
    4c80:	41 80 11 c1 	cmpne_i s2, s1, s3
    4c84:	82 00 00 f4 	bnz s2, 16 <dump_process_list+0xe0>
    4c88:	40 80 fc c0 	move s2, s25
    4c8c:	40 00 00 8a 	store_sync s2, (s0)  
    4c90:	62 ff ff f3 	bz s2, -20 <dump_process_list+0xc8>
    4c94:	01 00 00 10 	cmpeq_i s0, s1, 0
    4c98:	00 04 00 01 	and s0, s0, 1
    4c9c:	a0 fe ff f3 	bz s0, -44 <dump_process_list+0xbc>
    4ca0:	78 63 00 a8 	load_32 s27, 24(s24)
    4ca4:	38 53 00 05 	add_i s25, s24, 20
    4ca8:	19 80 0d c1 	cmpeq_i s0, s25, s27
    4cac:	80 01 00 f4 	bnz s0, 48 <dump_process_list+0x128>
    4cb0:	3b 20 00 a8 	load_32 s1, 8(s27)
    4cb4:	5b b0 00 05 	add_i s2, s27, 44
    4cb8:	1b e0 ff 05 	add_i s0, s27, -8
    4cbc:	5e 30 00 88 	store_32 s2, 12(sp)
    4cc0:	1e 20 00 88 	store_32 s0, 8(sp)
    4cc4:	3e 10 00 88 	store_32 s1, 4(sp)
    4cc8:	5e 03 00 88 	store_32 s26, (sp)
    4ccc:	6b f5 ff f9 	call -10836 <kprintf>
    4cd0:	7b 13 00 a8 	load_32 s27, 4(s27)
    4cd4:	19 80 1d c1 	cmpne_i s0, s25, s27
    4cd8:	c0 fe ff f5 	bnz s0, -40 <dump_process_list+0xfc>
    4cdc:	7e a0 01 a8 	load_32 s3, 104(sp)
    4ce0:	78 40 00 88 	store_32 s3, 16(s24)
    4ce4:	00 00 00 e8 	membar
    4ce8:	18 13 00 a8 	load_32 s24, 4(s24)
    4cec:	1e 90 01 a8 	load_32 s0, 100(sp)
    4cf0:	3e 83 01 a8 	load_32 s25, 96(sp)
    4cf4:	18 00 10 c1 	cmpne_i s0, s24, s0
    4cf8:	00 fb ff f5 	bnz s0, -160 <dump_process_list+0xa4>
    4cfc:	1e 50 01 a8 	load_32 s0, 84(sp)
    4d00:	60 00 00 88 	store_32 s3, (s0)
    4d04:	00 00 00 e8 	membar
    4d08:	1e 60 01 a8 	load_32 s0, 88(sp)
    4d0c:	79 f9 ff f9 	call -6684 <restore_interrupts>
    4d10:	fe b3 01 a8 	load_32 ra, 108(sp)
    4d14:	7e c3 01 a8 	load_32 s27, 112(sp)
    4d18:	5e d3 01 a8 	load_32 s26, 116(sp)
    4d1c:	3e e3 01 a8 	load_32 s25, 120(sp)
    4d20:	1e f3 01 a8 	load_32 s24, 124(sp)
    4d24:	de 03 02 05 	add_i sp, sp, 128
    4d28:	1f 00 00 f0 	ret

0000000000004d2c load_program:
    4d2c:	de 03 f8 05 	add_i sp, sp, -512
    4d30:	1e f3 07 88 	store_32 s24, 508(sp)
    4d34:	3e e3 07 88 	store_32 s25, 504(sp)
    4d38:	5e d3 07 88 	store_32 s26, 500(sp)
    4d3c:	7e c3 07 88 	store_32 s27, 496(sp)
    4d40:	fe b3 07 88 	store_32 ra, 492(sp)
    4d44:	20 03 f1 c0 	move s25, s2
    4d48:	00 03 f0 c0 	move s24, s0
    4d4c:	00 80 f0 c0 	move s0, s1
    4d50:	3f 01 00 f8 	call 1276 <open_file>
    4d54:	60 03 f0 c0 	move s27, s0
    4d58:	5b 00 00 f4 	bnz s27, 8 <load_program+0x34>
    4d5c:	12 00 00 f6 	b 72 <load_program+0x78>
    4d60:	40 03 00 0f 	move s26, 0
    4d64:	00 80 fd c0 	move s0, s27
    4d68:	5e e0 06 05 	add_i s2, sp, 440
    4d6c:	60 d0 00 0f 	move s3, 52
    4d70:	20 00 fd c0 	move s1, s26
    4d74:	e5 01 00 f8 	call 1940 <read_file>
    4d78:	00 fc ff 12 	cmpgt_i s0, s0, -1
    4d7c:	40 00 00 f4 	bnz s0, 8 <load_program+0x58>
    4d80:	0c 00 00 f6 	b 48 <load_program+0x84>
    4d84:	22 4c 46 4f 	movehi s1, 143970
    4d88:	1e e0 06 a8 	load_32 s0, 440(sp)
    4d8c:	21 fc 15 00 	or s1, s1, 1407
    4d90:	00 80 00 c1 	cmpeq_i s0, s0, s1
    4d94:	40 01 00 f4 	bnz s0, 40 <load_program+0x90>
    4d98:	00 00 00 4f 	movehi s0, 0
    4d9c:	00 cc 21 00 	or s0, s0, 2163
    4da0:	15 00 00 f6 	b 84 <load_program+0xc8>
    4da4:	00 00 00 4f 	movehi s0, 0
    4da8:	00 5c 05 00 	or s0, s0, 343
    4dac:	12 00 00 f6 	b 72 <load_program+0xc8>
    4db0:	00 00 00 4f 	movehi s0, 0
    4db4:	00 f0 0f 00 	or s0, s0, 1020
    4db8:	0f 00 00 f6 	b 60 <load_program+0xc8>
    4dbc:	21 00 00 4f 	movehi s1, 1
    4dc0:	1e 28 07 a4 	load_u16 s0, 458(sp)
    4dc4:	21 3c 1c 00 	or s1, s1, 1807
    4dc8:	00 80 00 c1 	cmpeq_i s0, s0, s1
    4dcc:	40 00 00 f4 	bnz s0, 8 <load_program+0xa8>
    4dd0:	07 00 00 f6 	b 28 <load_program+0xc0>
    4dd4:	1e 90 07 a4 	load_u16 s0, 484(sp)
    4dd8:	20 2c 00 18 	cmplt_u s1, s0, 11
    4ddc:	01 02 00 f4 	bnz s1, 64 <load_program+0xf0>
    4de0:	00 00 00 4f 	movehi s0, 0
    4de4:	00 b4 06 00 	or s0, s0, 429
    4de8:	03 00 00 f6 	b 12 <load_program+0xc8>
    4dec:	00 00 00 4f 	movehi s0, 0
    4df0:	00 74 25 00 	or s0, s0, 2397
    4df4:	1e 00 00 88 	store_32 s0, (sp)
    4df8:	20 f5 ff f9 	call -11136 <kprintf>
    4dfc:	00 fc ff 0f 	move s0, -1
    4e00:	fe b3 07 a8 	load_32 ra, 492(sp)
    4e04:	7e c3 07 a8 	load_32 s27, 496(sp)
    4e08:	5e d3 07 a8 	load_32 s26, 500(sp)
    4e0c:	3e e3 07 a8 	load_32 s25, 504(sp)
    4e10:	1e f3 07 a8 	load_32 s24, 508(sp)
    4e14:	de 03 08 05 	add_i sp, sp, 512
    4e18:	1f 00 00 f0 	ret
    4e1c:	40 00 00 f4 	bnz s0, 8 <load_program+0xf8>
    4e20:	e8 00 00 f6 	b 928 <load_program+0x494>
    4e24:	3e 50 07 a8 	load_32 s1, 468(sp)
    4e28:	60 14 00 0b 	shl s3, s0, 5
    4e2c:	5e e0 01 05 	add_i s2, sp, 120
    4e30:	00 80 fd c0 	move s0, s27
    4e34:	5e 90 01 88 	store_32 s2, 100(sp)
    4e38:	b4 01 00 f8 	call 1744 <read_file>
    4e3c:	00 fc ff 12 	cmpgt_i s0, s0, -1
    4e40:	40 00 00 f4 	bnz s0, 8 <load_program+0x11c>
    4e44:	e2 00 00 f6 	b 904 <load_program+0x4a0>
    4e48:	00 00 fd c0 	move s0, s26
    4e4c:	2f 0c 00 f8 	call 12476 <create_vm_cache>
    4e50:	1e 40 01 88 	store_32 s0, 80(sp)
    4e54:	60 23 00 88 	store_32 s27, 8(s0)
    4e58:	1e 90 07 a4 	load_u16 s0, 484(sp)
    4e5c:	be 90 01 a8 	load_32 s5, 100(sp)
    4e60:	00 19 00 f2 	bz s0, 800 <load_program+0x454>
    4e64:	27 00 00 4f 	movehi s1, 7
    4e68:	40 00 00 4f 	movehi s2, 0
    4e6c:	60 00 00 4f 	movehi s3, 0
    4e70:	40 03 00 0f 	move s26, 0
    4e74:	c1 fc 7f 00 	or s6, s1, 8191
    4e78:	22 80 16 00 	or s1, s2, 1440
    4e7c:	3e 80 01 88 	store_32 s1, 96(sp)
    4e80:	23 3c 06 00 	or s1, s3, 399
    4e84:	3e 70 01 88 	store_32 s1, 92(sp)
    4e88:	20 08 00 0f 	move s1, 2
    4e8c:	3e 30 01 88 	store_32 s1, 76(sp)
    4e90:	60 03 fd c0 	move s27, s26
    4e94:	5e a3 01 88 	store_32 s26, 104(sp)
    4e98:	3e 63 01 88 	store_32 s25, 88(sp)
    4e9c:	1e d3 01 88 	store_32 s24, 116(sp)
    4ea0:	de 50 01 88 	store_32 s6, 84(sp)
    4ea4:	3b 14 00 0b 	shl s1, s27, 5
    4ea8:	05 83 50 c0 	add_i s24, s5, s1
    4eac:	38 00 00 a0 	load_u8 s1, (s24)
    4eb0:	21 04 00 01 	and s1, s1, 1
    4eb4:	41 00 00 f2 	bz s1, 8 <load_program+0x190>
    4eb8:	07 00 00 f6 	b 28 <load_program+0x1a8>
    4ebc:	1e d3 01 a8 	load_32 s24, 116(sp)
    4ec0:	7b 07 00 05 	add_i s27, s27, 1
    4ec4:	20 00 13 c0 	and s1, s0, s6
    4ec8:	3b 80 80 c1 	cmplt_u s1, s27, s1
    4ecc:	c1 fe ff f5 	bnz s1, -40 <load_program+0x178>
    4ed0:	ac 00 00 f6 	b 688 <load_program+0x454>
    4ed4:	38 50 00 a0 	load_u8 s1, 20(s24)
    4ed8:	58 54 00 a0 	load_u8 s2, 21(s24)
    4edc:	78 58 00 a0 	load_u8 s3, 22(s24)
    4ee0:	98 5c 00 a0 	load_u8 s4, 23(s24)
    4ee4:	42 20 00 0b 	shl s2, s2, 8
    4ee8:	84 20 00 0b 	shl s4, s4, 8
    4eec:	22 80 00 c0 	or s1, s2, s1
    4ef0:	64 80 01 c0 	or s3, s4, s3
    4ef4:	63 40 00 0b 	shl s3, s3, 16
    4ef8:	23 80 00 c0 	or s1, s3, s1
    4efc:	41 09 00 f2 	bz s1, 296 <load_program+0x2f8>
    4f00:	18 10 00 00 	or s0, s24, 4
    4f04:	1e c0 01 88 	store_32 s0, 112(sp)
    4f08:	58 14 00 00 	or s2, s24, 5
    4f0c:	78 18 00 00 	or s3, s24, 6
    4f10:	98 1c 00 00 	or s4, s24, 7
    4f14:	00 00 00 a0 	load_u8 s0, (s0)
    4f18:	42 00 00 a0 	load_u8 s2, (s2)
    4f1c:	38 23 00 05 	add_i s25, s24, 8
    4f20:	63 00 00 a0 	load_u8 s3, (s3)
    4f24:	84 00 00 a0 	load_u8 s4, (s4)
    4f28:	b8 20 00 a0 	load_u8 s5, 8(s24)
    4f2c:	d8 24 00 a0 	load_u8 s6, 9(s24)
    4f30:	42 20 00 0b 	shl s2, s2, 8
    4f34:	f8 28 00 a0 	load_u8 s7, 10(s24)
    4f38:	18 2d 00 a0 	load_u8 s8, 11(s24)
    4f3c:	84 20 00 0b 	shl s4, s4, 8
    4f40:	02 00 00 c0 	or s0, s2, s0
    4f44:	64 80 01 c0 	or s3, s4, s3
    4f48:	48 20 00 0b 	shl s2, s8, 8
    4f4c:	86 20 00 0b 	shl s4, s6, 8
    4f50:	d8 40 00 a0 	load_u8 s6, 16(s24)
    4f54:	63 40 00 0b 	shl s3, s3, 16
    4f58:	42 80 03 c0 	or s2, s2, s7
    4f5c:	f8 44 00 a0 	load_u8 s7, 17(s24)
    4f60:	18 49 00 a0 	load_u8 s8, 18(s24)
    4f64:	38 4d 00 a0 	load_u8 s9, 19(s24)
    4f68:	03 00 00 c0 	or s0, s3, s0
    4f6c:	64 80 02 c0 	or s3, s4, s5
    4f70:	b8 60 00 a0 	load_u8 s5, 24(s24)
    4f74:	42 40 00 0b 	shl s2, s2, 16
    4f78:	89 20 00 0b 	shl s4, s9, 8
    4f7c:	38 65 00 a0 	load_u8 s9, 25(s24)
    4f80:	58 69 00 a0 	load_u8 s10, 26(s24)
    4f84:	42 80 01 c0 	or s2, s2, s3
    4f88:	78 6d 00 a0 	load_u8 s11, 27(s24)
    4f8c:	67 20 00 0b 	shl s3, s7, 8
    4f90:	84 00 04 c0 	or s4, s4, s8
    4f94:	63 00 03 c0 	or s3, s3, s6
    4f98:	eb 20 00 0b 	shl s7, s11, 8
    4f9c:	84 40 00 0b 	shl s4, s4, 16
    4fa0:	c7 00 05 c0 	or s6, s7, s10
    4fa4:	64 80 01 c0 	or s3, s4, s3
    4fa8:	89 20 00 0b 	shl s4, s9, 8
    4fac:	c6 40 00 0b 	shl s6, s6, 16
    4fb0:	f8 50 00 05 	add_i s7, s24, 20
    4fb4:	fe b0 01 88 	store_32 s7, 108(sp)
    4fb8:	3e 50 00 88 	store_32 s1, 20(sp)
    4fbc:	84 80 02 c0 	or s4, s4, s5
    4fc0:	7e 13 00 88 	store_32 s27, 4(sp)
    4fc4:	86 00 02 c0 	or s4, s6, s4
    4fc8:	3e 80 01 a8 	load_32 s1, 96(sp)
    4fcc:	3e 00 00 88 	store_32 s1, (sp)
    4fd0:	9e 60 00 88 	store_32 s4, 24(sp)
    4fd4:	7e 40 00 88 	store_32 s3, 16(sp)
    4fd8:	5e 30 00 88 	store_32 s2, 12(sp)
    4fdc:	1e 20 00 88 	store_32 s0, 8(sp)
    4fe0:	a6 f4 ff f9 	call -11624 <kprintf>
    4fe4:	18 60 00 a0 	load_u8 s0, 24(s24)
    4fe8:	38 64 00 a0 	load_u8 s1, 25(s24)
    4fec:	58 68 00 a0 	load_u8 s2, 26(s24)
    4ff0:	78 6c 00 a0 	load_u8 s3, 27(s24)
    4ff4:	21 20 00 0b 	shl s1, s1, 8
    4ff8:	63 20 00 0b 	shl s3, s3, 8
    4ffc:	01 00 00 c0 	or s0, s1, s0
    5000:	43 00 01 c0 	or s2, s3, s2
    5004:	42 40 00 0b 	shl s2, s2, 16
    5008:	22 00 00 c0 	or s1, s2, s0
    500c:	01 08 00 01 	and s0, s1, 2
    5010:	40 00 00 f2 	bz s0, 8 <load_program+0x2ec>
    5014:	0a 00 00 f6 	b 40 <load_program+0x310>
    5018:	de 40 01 a8 	load_32 s6, 80(sp)
    501c:	5e a0 01 a8 	load_32 s2, 104(sp)
    5020:	1a 00 00 f6 	b 104 <load_program+0x35c>
    5024:	1e d3 01 a8 	load_32 s24, 116(sp)
    5028:	7b 07 00 05 	add_i s27, s27, 1
    502c:	20 00 13 c0 	and s1, s0, s6
    5030:	3b 80 80 c1 	cmplt_u s1, s27, s1
    5034:	81 f3 ff f5 	bnz s1, -400 <load_program+0x178>
    5038:	52 00 00 f6 	b 328 <load_program+0x454>
    503c:	c0 00 fd c0 	move s6, s26
    5040:	5e 30 01 a8 	load_32 s2, 76(sp)
    5044:	3a 02 00 f4 	bnz s26, 68 <load_program+0x35c>
    5048:	1e 40 01 a8 	load_32 s0, 80(sp)
    504c:	58 63 00 05 	add_i s26, s24, 24
    5050:	ae 0b 00 f8 	call 11960 <create_vm_cache>
    5054:	3a 00 00 a0 	load_u8 s1, (s26)
    5058:	5a 04 00 a0 	load_u8 s2, 1(s26)
    505c:	7a 08 00 a0 	load_u8 s3, 2(s26)
    5060:	9a 0c 00 a0 	load_u8 s4, 3(s26)
    5064:	c0 00 f0 c0 	move s6, s0
    5068:	42 20 00 0b 	shl s2, s2, 8
    506c:	40 03 f3 c0 	move s26, s6
    5070:	84 20 00 0b 	shl s4, s4, 8
    5074:	02 80 00 c0 	or s0, s2, s1
    5078:	5e 30 01 a8 	load_32 s2, 76(sp)
    507c:	64 80 01 c0 	or s3, s4, s3
    5080:	63 40 00 0b 	shl s3, s3, 16
    5084:	23 00 00 c0 	or s1, s3, s0
    5088:	1e d0 01 a8 	load_32 s0, 116(sp)
    508c:	21 08 00 0b 	shl s1, s1, 2
    5090:	21 10 00 01 	and s1, s1, 4
    5094:	00 70 00 a8 	load_32 s0, 28(s0)
    5098:	79 00 00 a0 	load_u8 s3, (s25)
    509c:	99 04 00 a0 	load_u8 s4, 1(s25)
    50a0:	b9 08 00 a0 	load_u8 s5, 2(s25)
    50a4:	f9 0c 00 a0 	load_u8 s7, 3(s25)
    50a8:	1e b1 01 a8 	load_32 s8, 108(sp)
    50ac:	84 20 00 0b 	shl s4, s4, 8
    50b0:	e7 20 00 0b 	shl s7, s7, 8
    50b4:	e7 80 02 c0 	or s7, s7, s5
    50b8:	a1 00 01 c0 	or s5, s1, s2
    50bc:	24 80 01 c0 	or s1, s4, s3
    50c0:	68 00 00 a0 	load_u8 s3, (s8)
    50c4:	88 04 00 a0 	load_u8 s4, 1(s8)
    50c8:	47 40 00 0b 	shl s2, s7, 16
    50cc:	e8 08 00 a0 	load_u8 s7, 2(s8)
    50d0:	08 0d 00 a0 	load_u8 s8, 3(s8)
    50d4:	9e c1 01 a8 	load_32 s12, 112(sp)
    50d8:	22 80 00 c0 	or s1, s2, s1
    50dc:	84 20 00 0b 	shl s4, s4, 8
    50e0:	48 20 00 0b 	shl s2, s8, 8
    50e4:	2c 01 00 a0 	load_u8 s9, (s12)
    50e8:	64 80 01 c0 	or s3, s4, s3
    50ec:	4c 05 00 a0 	load_u8 s10, 1(s12)
    50f0:	6c 09 00 a0 	load_u8 s11, 2(s12)
    50f4:	42 80 03 c0 	or s2, s2, s7
    50f8:	8c 0d 00 a0 	load_u8 s12, 3(s12)
    50fc:	42 40 00 0b 	shl s2, s2, 16
    5100:	ea 20 00 0b 	shl s7, s10, 8
    5104:	0c 21 00 0b 	shl s8, s12, 8
    5108:	42 80 01 c0 	or s2, s2, s3
    510c:	67 80 04 c0 	or s3, s7, s9
    5110:	88 80 05 c0 	or s4, s8, s11
    5114:	84 40 00 0b 	shl s4, s4, 16
    5118:	e4 80 01 c0 	or s7, s4, s3
    511c:	7e a0 01 a8 	load_32 s3, 104(sp)
    5120:	9e 70 01 a8 	load_32 s4, 92(sp)
    5124:	d7 08 00 f8 	call 9052 <create_area>
    5128:	80 05 00 f2 	bz s0, 176 <load_program+0x4ac>
    512c:	38 40 00 05 	add_i s1, s24, 16
    5130:	41 00 00 a0 	load_u8 s2, (s1)
    5134:	61 04 00 a0 	load_u8 s3, 1(s1)
    5138:	81 08 00 a0 	load_u8 s4, 2(s1)
    513c:	21 0c 00 a0 	load_u8 s1, 3(s1)
    5140:	63 20 00 0b 	shl s3, s3, 8
    5144:	21 20 00 0b 	shl s1, s1, 8
    5148:	43 00 01 c0 	or s2, s3, s2
    514c:	21 00 02 c0 	or s1, s1, s4
    5150:	21 40 00 0b 	shl s1, s1, 16
    5154:	21 00 01 c0 	or s1, s1, s2
    5158:	20 60 00 88 	store_32 s1, 24(s0)
    515c:	1e 90 07 a6 	load_s16 s0, 484(sp)
    5160:	3e 63 01 a8 	load_32 s25, 88(sp)
    5164:	1e d3 01 a8 	load_32 s24, 116(sp)
    5168:	be 90 01 a8 	load_32 s5, 100(sp)
    516c:	de 50 01 a8 	load_32 s6, 84(sp)
    5170:	7b 07 00 05 	add_i s27, s27, 1
    5174:	20 00 13 c0 	and s1, s0, s6
    5178:	3b 80 80 c1 	cmplt_u s1, s27, s1
    517c:	41 e9 ff f5 	bnz s1, -728 <load_program+0x178>
    5180:	1e 40 01 a8 	load_32 s0, 80(sp)
    5184:	40 00 00 f2 	bz s0, 8 <load_program+0x460>
    5188:	b1 0b 00 f8 	call 11972 <dec_cache_ref>
    518c:	7a 00 00 f2 	bz s26, 12 <load_program+0x46c>
    5190:	00 00 fd c0 	move s0, s26
    5194:	ae 0b 00 f8 	call 11960 <dec_cache_ref>
    5198:	20 00 00 4f 	movehi s1, 0
    519c:	1e 40 07 a8 	load_32 s0, 464(sp)
    51a0:	1e 10 00 88 	store_32 s0, 4(sp)
    51a4:	01 88 12 00 	or s0, s1, 1186
    51a8:	1e 00 00 88 	store_32 s0, (sp)
    51ac:	33 f4 ff f9 	call -12084 <kprintf>
    51b0:	1e 40 07 a8 	load_32 s0, 464(sp)
    51b4:	19 00 00 88 	store_32 s0, (s25)
    51b8:	00 00 00 0f 	move s0, 0
    51bc:	11 ff ff f7 	b -956 <load_program+0xd4>
    51c0:	00 00 00 4f 	movehi s0, 0
    51c4:	00 60 09 00 	or s0, s0, 600
    51c8:	0b ff ff f7 	b -980 <load_program+0xc8>
    51cc:	00 00 00 4f 	movehi s0, 0
    51d0:	00 ac 23 00 	or s0, s0, 2283
    51d4:	08 ff ff f7 	b -992 <load_program+0xc8>
    51d8:	00 00 00 4f 	movehi s0, 0
    51dc:	00 b0 0d 00 	or s0, s0, 876
    51e0:	05 ff ff f7 	b -1004 <load_program+0xc8>

00000000000051e4 read_block:
    51e4:	de 03 ff 05 	add_i sp, sp, -64
    51e8:	1e f3 00 88 	store_32 s24, 60(sp)
    51ec:	fe e3 00 88 	store_32 ra, 56(sp)
    51f0:	44 00 00 4f 	movehi s2, 4
    51f4:	42 00 4f 00 	or s2, s2, 5056
    51f8:	42 00 00 a0 	load_u8 s2, (s2)
    51fc:	42 04 00 11 	cmpne_i s2, s2, 1
    5200:	82 01 00 f4 	bnz s2, 48 <read_block+0x4c>
    5204:	44 00 00 4f 	movehi s2, 4
    5208:	00 24 00 0b 	shl s0, s0, 9
    520c:	00 03 08 0f 	move s24, 512
    5210:	42 10 4f 00 	or s2, s2, 5060
    5214:	42 00 00 a8 	load_32 s2, (s2)
    5218:	42 00 50 c0 	add_i s2, s2, s0
    521c:	00 80 f0 c0 	move s0, s1
    5220:	20 00 f1 c0 	move s1, s2
    5224:	40 00 fc c0 	move s2, s24
    5228:	0f f6 ff f9 	call -10180 <memcpy>
    522c:	03 00 00 f6 	b 12 <read_block+0x54>
    5230:	fe 01 00 f8 	call 2040 <read_sdmmc_device>
    5234:	00 03 f0 c0 	move s24, s0
    5238:	00 00 fc c0 	move s0, s24
    523c:	fe e3 00 a8 	load_32 ra, 56(sp)
    5240:	1e f3 00 a8 	load_32 s24, 60(sp)
    5244:	de 03 01 05 	add_i sp, sp, 64
    5248:	1f 00 00 f0 	ret

000000000000524c open_file:
    524c:	de 03 f6 05 	add_i sp, sp, -640
    5250:	1e f3 09 88 	store_32 s24, 636(sp)
    5254:	3e e3 09 88 	store_32 s25, 632(sp)
    5258:	5e d3 09 88 	store_32 s26, 628(sp)
    525c:	7e c3 09 88 	store_32 s27, 624(sp)
    5260:	fe b3 09 88 	store_32 ra, 620(sp)
    5264:	24 00 00 4f 	movehi s1, 4
    5268:	01 23 4f 00 	or s24, s1, 5064
    526c:	38 00 00 a0 	load_u8 s1, (s24)
    5270:	1e a0 01 88 	store_32 s0, 104(sp)
    5274:	e1 0f 00 f4 	bnz s1, 508 <open_file+0x224>
    5278:	19 01 00 f8 	call 1124 <init_sdmmc_device>
    527c:	00 fc ff 12 	cmpgt_i s0, s0, -1
    5280:	40 00 00 f4 	bnz s0, 8 <open_file+0x3c>
    5284:	0a 00 00 f6 	b 40 <open_file+0x60>
    5288:	04 00 00 4f 	movehi s0, 4
    528c:	00 00 4f 00 	or s0, s0, 5056
    5290:	00 00 00 a0 	load_u8 s0, (s0)
    5294:	00 04 00 11 	cmpne_i s0, s0, 1
    5298:	20 04 00 f4 	bnz s0, 132 <open_file+0xd0>
    529c:	04 00 00 4f 	movehi s0, 4
    52a0:	00 10 4f 00 	or s0, s0, 5060
    52a4:	20 00 00 a8 	load_32 s1, (s0)
    52a8:	19 00 00 f6 	b 100 <open_file+0xc0>
    52ac:	00 00 00 4f 	movehi s0, 0
    52b0:	00 90 0c 00 	or s0, s0, 804
    52b4:	1e 00 00 88 	store_32 s0, (sp)
    52b8:	f0 f3 ff f9 	call -12352 <kprintf>
    52bc:	d4 07 00 f8 	call 8016 <get_kernel_address_space>
    52c0:	20 00 00 4f 	movehi s1, 0
    52c4:	20 07 00 0f 	move s25, 1
    52c8:	40 80 00 4f 	movehi s2, 1024
    52cc:	81 e8 1b 00 	or s4, s1, 1786
    52d0:	20 00 00 0f 	move s1, 0
    52d4:	60 08 00 0f 	move s3, 2
    52d8:	c0 00 04 4f 	movehi s6, 8192
    52dc:	a0 80 fc c0 	move s5, s25
    52e0:	ab 09 00 f8 	call 9900 <map_contiguous_memory>
    52e4:	24 00 00 4f 	movehi s1, 4
    52e8:	44 00 00 4f 	movehi s2, 4
    52ec:	64 00 00 4f 	movehi s3, 4
    52f0:	21 40 4f 00 	or s1, s1, 5072
    52f4:	42 10 4f 00 	or s2, s2, 5060
    52f8:	63 00 4f 00 	or s3, s3, 5056
    52fc:	01 00 00 88 	store_32 s0, (s1)
    5300:	20 20 00 a8 	load_32 s1, 8(s0)
    5304:	22 00 00 88 	store_32 s1, (s2)
    5308:	23 03 00 82 	store_8 s25, (s3)
    530c:	1e b0 01 05 	add_i s0, sp, 108
    5310:	40 00 08 0f 	move s2, 512
    5314:	d4 f5 ff f9 	call -10416 <memcpy>
    5318:	07 00 00 f6 	b 28 <open_file+0xe8>
    531c:	00 00 00 0f 	move s0, 0
    5320:	3e b0 01 05 	add_i s1, sp, 108
    5324:	c1 01 00 f8 	call 1796 <read_sdmmc_device>
    5328:	00 00 00 12 	cmpgt_i s0, s0, 0
    532c:	40 00 00 f4 	bnz s0, 8 <open_file+0xe8>
    5330:	73 00 00 f6 	b 460 <open_file+0x2b0>
    5334:	1e b4 01 a0 	load_u8 s0, 109(sp)
    5338:	3e b0 01 a0 	load_u8 s1, 108(sp)
    533c:	5e bc 01 a0 	load_u8 s2, 111(sp)
    5340:	7e b8 01 a0 	load_u8 s3, 110(sp)
    5344:	00 20 00 0b 	shl s0, s0, 8
    5348:	42 20 00 0b 	shl s2, s2, 8
    534c:	00 80 00 c0 	or s0, s0, s1
    5350:	33 64 73 4f 	movehi s1, 236339
    5354:	42 80 01 c0 	or s2, s2, s3
    5358:	21 cc 41 00 	or s1, s1, 4211
    535c:	42 40 00 0b 	shl s2, s2, 16
    5360:	02 00 00 c0 	or s0, s2, s0
    5364:	00 80 00 c1 	cmpeq_i s0, s0, s1
    5368:	c0 00 00 f4 	bnz s0, 24 <open_file+0x134>
    536c:	00 00 00 4f 	movehi s0, 0
    5370:	00 0c 13 00 	or s0, s0, 1219
    5374:	1e 00 00 88 	store_32 s0, (sp)
    5378:	c0 f3 ff f9 	call -12544 <kprintf>
    537c:	50 00 00 f6 	b 320 <open_file+0x270>
    5380:	1e 63 01 88 	store_32 s24, 88(sp)
    5384:	1e c0 01 a8 	load_32 s0, 112(sp)
    5388:	00 a0 00 07 	mull_i s0, s0, 40
    538c:	20 1c 48 05 	add_i s1, s0, 4615
    5390:	20 1f 08 05 	add_i s25, s0, 519
    5394:	21 00 f8 01 	and s1, s1, -512
    5398:	21 fc ff 05 	add_i s1, s1, -1
    539c:	01 00 c0 01 	and s0, s1, -4096
    53a0:	07 f9 ff f9 	call -7140 <kmalloc>
    53a4:	24 00 00 4f 	movehi s1, 4
    53a8:	60 03 f0 c0 	move s27, s0
    53ac:	40 00 08 0f 	move s2, 512
    53b0:	21 30 4f 00 	or s1, s1, 5068
    53b4:	00 83 f0 c0 	move s24, s1
    53b8:	61 03 00 88 	store_32 s27, (s1)
    53bc:	3e b0 01 05 	add_i s1, sp, 108
    53c0:	a9 f5 ff f9 	call -10588 <memcpy>
    53c4:	19 00 10 18 	cmplt_u s0, s25, 1024
    53c8:	e0 04 00 f4 	bnz s0, 156 <open_file+0x218>
    53cc:	19 24 00 0a 	shr s0, s25, 9
    53d0:	1e 90 01 88 	store_32 s0, 100(sp)
    53d4:	04 00 00 4f 	movehi s0, 4
    53d8:	24 00 00 4f 	movehi s1, 4
    53dc:	20 07 00 0f 	move s25, 1
    53e0:	40 03 4f 00 	or s26, s0, 5056
    53e4:	01 10 4f 00 	or s0, s1, 5060
    53e8:	1e 80 01 88 	store_32 s0, 96(sp)
    53ec:	00 00 08 0f 	move s0, 512
    53f0:	1e 70 01 88 	store_32 s0, 92(sp)
    53f4:	02 00 00 f6 	b 8 <open_file+0x1b0>
    53f8:	78 03 00 a8 	load_32 s27, (s24)
    53fc:	3a 00 00 a0 	load_u8 s1, (s26)
    5400:	19 24 00 0b 	shl s0, s25, 9
    5404:	5b 00 50 c0 	add_i s2, s27, s0
    5408:	21 04 00 11 	cmpne_i s1, s1, 1
    540c:	81 01 00 f4 	bnz s1, 48 <open_file+0x1f0>
    5410:	3e 80 01 a8 	load_32 s1, 96(sp)
    5414:	21 00 00 a8 	load_32 s1, (s1)
    5418:	21 00 50 c0 	add_i s1, s1, s0
    541c:	00 00 f1 c0 	move s0, s2
    5420:	5e 70 01 a8 	load_32 s2, 92(sp)
    5424:	90 f5 ff f9 	call -10688 <memcpy>
    5428:	1e 90 01 a8 	load_32 s0, 100(sp)
    542c:	39 07 00 05 	add_i s25, s25, 1
    5430:	19 00 70 c1 	cmpge_u s0, s25, s0
    5434:	80 01 00 f4 	bnz s0, 48 <open_file+0x218>
    5438:	f0 ff ff f7 	b -64 <open_file+0x1ac>
    543c:	00 80 fc c0 	move s0, s25
    5440:	20 00 f1 c0 	move s1, s2
    5444:	79 01 00 f8 	call 1508 <read_sdmmc_device>
    5448:	00 04 00 14 	cmplt_i s0, s0, 1
    544c:	80 03 00 f4 	bnz s0, 112 <open_file+0x270>
    5450:	1e 90 01 a8 	load_32 s0, 100(sp)
    5454:	39 07 00 05 	add_i s25, s25, 1
    5458:	19 00 70 c1 	cmpge_u s0, s25, s0
    545c:	40 00 00 f4 	bnz s0, 8 <open_file+0x218>
    5460:	e6 ff ff f7 	b -104 <open_file+0x1ac>
    5464:	3e 60 01 a8 	load_32 s1, 88(sp)
    5468:	00 04 00 0f 	move s0, 1
    546c:	01 00 00 82 	store_8 s0, (s1)
    5470:	04 00 00 4f 	movehi s0, 4
    5474:	00 30 4f 00 	or s0, s0, 5068
    5478:	40 03 00 a8 	load_32 s26, (s0)
    547c:	7a 13 00 a8 	load_32 s27, 4(s26)
    5480:	fb 01 00 f2 	bz s27, 60 <open_file+0x270>
    5484:	20 03 00 0f 	move s25, 0
    5488:	3e 93 01 88 	store_32 s25, 100(sp)
    548c:	19 a0 00 07 	mull_i s0, s25, 40
    5490:	3e a0 01 a8 	load_32 s1, 104(sp)
    5494:	1a 03 50 c0 	add_i s24, s26, s0
    5498:	18 40 00 05 	add_i s0, s24, 16
    549c:	56 f3 ff f9 	call -12968 <strcmp>
    54a0:	40 00 00 f4 	bnz s0, 8 <open_file+0x25c>
    54a4:	08 00 00 f6 	b 32 <open_file+0x278>
    54a8:	39 07 00 05 	add_i s25, s25, 1
    54ac:	19 80 8d c1 	cmplt_u s0, s25, s27
    54b0:	e0 fe ff f5 	bnz s0, -36 <open_file+0x240>
    54b4:	1e 90 01 a8 	load_32 s0, 100(sp)
    54b8:	0a 00 00 f6 	b 40 <open_file+0x294>
    54bc:	00 00 00 0f 	move s0, 0
    54c0:	08 00 00 f6 	b 32 <open_file+0x294>
    54c4:	04 00 00 4f 	movehi s0, 4
    54c8:	00 e0 40 00 	or s0, s0, 4152
    54cc:	94 f9 ff f9 	call -6576 <slab_alloc>
    54d0:	38 20 00 a8 	load_32 s1, 8(s24)
    54d4:	20 00 00 88 	store_32 s1, (s0)
    54d8:	38 30 00 a8 	load_32 s1, 12(s24)
    54dc:	20 10 00 88 	store_32 s1, 4(s0)
    54e0:	fe b3 09 a8 	load_32 ra, 620(sp)
    54e4:	7e c3 09 a8 	load_32 s27, 624(sp)
    54e8:	5e d3 09 a8 	load_32 s26, 628(sp)
    54ec:	3e e3 09 a8 	load_32 s25, 632(sp)
    54f0:	1e f3 09 a8 	load_32 s24, 636(sp)
    54f4:	de 03 0a 05 	add_i sp, sp, 640
    54f8:	1f 00 00 f0 	ret
    54fc:	00 00 00 4f 	movehi s0, 0
    5500:	00 ac 11 00 	or s0, s0, 1131
    5504:	9c ff ff f7 	b -400 <open_file+0x128>

0000000000005508 read_file:
    5508:	de 03 f6 05 	add_i sp, sp, -640
    550c:	1e f3 09 88 	store_32 s24, 636(sp)
    5510:	3e e3 09 88 	store_32 s25, 632(sp)
    5514:	5e d3 09 88 	store_32 s26, 628(sp)
    5518:	7e c3 09 88 	store_32 s27, 624(sp)
    551c:	fe b3 09 88 	store_32 ra, 620(sp)
    5520:	a0 00 00 a8 	load_32 s5, (s0)
    5524:	83 80 50 c0 	add_i s4, s3, s1
    5528:	00 10 00 a8 	load_32 s0, 4(s0)
    552c:	5e a0 01 88 	store_32 s2, 104(sp)
    5530:	84 00 60 c1 	cmpgt_u s4, s4, s0
    5534:	44 00 00 f4 	bnz s4, 8 <read_file+0x34>
    5538:	02 00 00 f6 	b 8 <read_file+0x38>
    553c:	60 80 60 c0 	sub_i s3, s0, s1
    5540:	03 04 00 14 	cmplt_i s0, s3, 1
    5544:	e0 0a 00 f4 	bnz s0, 348 <read_file+0x198>
    5548:	05 80 50 c0 	add_i s0, s5, s1
    554c:	40 03 00 0f 	move s26, 0
    5550:	40 00 08 0f 	move s2, 512
    5554:	20 7c 00 09 	ashr s1, s0, 31
    5558:	00 ff 07 01 	and s24, s0, 511
    555c:	21 5c 00 0a 	shr s1, s1, 23
    5560:	20 80 50 c0 	add_i s1, s0, s1
    5564:	04 00 00 4f 	movehi s0, 4
    5568:	61 27 00 09 	ashr s27, s1, 9
    556c:	24 00 00 4f 	movehi s1, 4
    5570:	00 00 4f 00 	or s0, s0, 5056
    5574:	1e 90 01 88 	store_32 s0, 100(sp)
    5578:	01 10 4f 00 	or s0, s1, 5060
    557c:	1e 30 01 88 	store_32 s0, 76(sp)
    5580:	1e b0 01 05 	add_i s0, sp, 108
    5584:	1e 80 01 88 	store_32 s0, 96(sp)
    5588:	5e 63 01 88 	store_32 s26, 88(sp)
    558c:	7e 70 01 88 	store_32 s3, 92(sp)
    5590:	5e 50 01 88 	store_32 s2, 84(sp)
    5594:	23 03 6d c0 	sub_i s25, s3, s26
    5598:	18 02 00 f4 	bnz s24, 64 <read_file+0xd0>
    559c:	19 00 08 14 	cmplt_i s0, s25, 512
    55a0:	c0 01 00 f4 	bnz s0, 56 <read_file+0xd0>
    55a4:	1e 90 01 a8 	load_32 s0, 100(sp)
    55a8:	00 00 00 a0 	load_u8 s0, (s0)
    55ac:	3e a0 01 a8 	load_32 s1, 104(sp)
    55b0:	00 04 00 11 	cmpne_i s0, s0, 1
    55b4:	61 00 5d c0 	add_i s3, s1, s26
    55b8:	80 05 00 f4 	bnz s0, 176 <read_file+0x160>
    55bc:	1e 30 01 a8 	load_32 s0, 76(sp)
    55c0:	3b 24 00 0b 	shl s1, s27, 9
    55c4:	00 00 00 a8 	load_32 s0, (s0)
    55c8:	20 80 50 c0 	add_i s1, s0, s1
    55cc:	00 80 f1 c0 	move s0, s3
    55d0:	25 f5 ff f9 	call -11116 <memcpy>
    55d4:	2b 00 00 f6 	b 172 <read_file+0x178>
    55d8:	5e 43 01 88 	store_32 s26, 80(sp)
    55dc:	1e 90 01 a8 	load_32 s0, 100(sp)
    55e0:	00 00 00 a0 	load_u8 s0, (s0)
    55e4:	00 04 00 11 	cmpne_i s0, s0, 1
    55e8:	80 01 00 f4 	bnz s0, 48 <read_file+0x110>
    55ec:	1e 30 01 a8 	load_32 s0, 76(sp)
    55f0:	3b 24 00 0b 	shl s1, s27, 9
    55f4:	00 00 00 a8 	load_32 s0, (s0)
    55f8:	20 80 50 c0 	add_i s1, s0, s1
    55fc:	1e 80 01 a8 	load_32 s0, 96(sp)
    5600:	40 03 f1 c0 	move s26, s2
    5604:	18 f5 ff f9 	call -11168 <memcpy>
    5608:	1a 00 6c c0 	sub_i s0, s26, s24
    560c:	20 80 2c c1 	cmpgt_i s1, s0, s25
    5610:	a1 01 00 f4 	bnz s1, 52 <read_file+0x13c>
    5614:	0b 00 00 f6 	b 44 <read_file+0x138>
    5618:	00 80 fd c0 	move s0, s27
    561c:	3e 80 01 a8 	load_32 s1, 96(sp)
    5620:	40 03 f1 c0 	move s26, s2
    5624:	01 01 00 f8 	call 1028 <read_sdmmc_device>
    5628:	00 fc ff 12 	cmpgt_i s0, s0, -1
    562c:	40 00 00 f4 	bnz s0, 8 <read_file+0x12c>
    5630:	1e 00 00 f6 	b 120 <read_file+0x1a0>
    5634:	1a 00 6c c0 	sub_i s0, s26, s24
    5638:	20 80 2c c1 	cmpgt_i s1, s0, s25
    563c:	41 00 00 f4 	bnz s1, 8 <read_file+0x13c>
    5640:	20 03 f0 c0 	move s25, s0
    5644:	1e a0 01 a8 	load_32 s0, 104(sp)
    5648:	5e 43 01 a8 	load_32 s26, 80(sp)
    564c:	3e 80 01 a8 	load_32 s1, 96(sp)
    5650:	40 80 fc c0 	move s2, s25
    5654:	00 00 5d c0 	add_i s0, s0, s26
    5658:	21 00 5c c0 	add_i s1, s1, s24
    565c:	02 f5 ff f9 	call -11256 <memcpy>
    5660:	59 03 5d c0 	add_i s26, s25, s26
    5664:	08 00 00 f6 	b 32 <read_file+0x17c>
    5668:	00 80 fd c0 	move s0, s27
    566c:	20 80 f1 c0 	move s1, s3
    5670:	ee 00 00 f8 	call 952 <read_sdmmc_device>
    5674:	00 fc ff 12 	cmpgt_i s0, s0, -1
    5678:	40 00 00 f4 	bnz s0, 8 <read_file+0x178>
    567c:	0b 00 00 f6 	b 44 <read_file+0x1a0>
    5680:	5a 03 08 05 	add_i s26, s26, 512
    5684:	7e 70 01 a8 	load_32 s3, 92(sp)
    5688:	7b 07 00 05 	add_i s27, s27, 1
    568c:	1e 63 01 a8 	load_32 s24, 88(sp)
    5690:	5e 50 01 a8 	load_32 s2, 84(sp)
    5694:	03 00 2d c1 	cmpgt_i s0, s3, s26
    5698:	e0 f7 ff f5 	bnz s0, -260 <read_file+0x8c>
    569c:	08 00 00 f6 	b 32 <read_file+0x1b4>
    56a0:	40 03 00 0f 	move s26, 0
    56a4:	06 00 00 f6 	b 24 <read_file+0x1b4>
    56a8:	00 00 00 4f 	movehi s0, 0
    56ac:	00 c4 17 00 	or s0, s0, 1521
    56b0:	1e 00 00 88 	store_32 s0, (sp)
    56b4:	f1 f2 ff f9 	call -13372 <kprintf>
    56b8:	40 ff ff 0f 	move s26, -1
    56bc:	00 00 fd c0 	move s0, s26
    56c0:	fe b3 09 a8 	load_32 ra, 620(sp)
    56c4:	7e c3 09 a8 	load_32 s27, 624(sp)
    56c8:	5e d3 09 a8 	load_32 s26, 628(sp)
    56cc:	3e e3 09 a8 	load_32 s25, 632(sp)
    56d0:	1e f3 09 a8 	load_32 s24, 636(sp)
    56d4:	de 03 0a 05 	add_i sp, sp, 640
    56d8:	1f 00 00 f0 	ret

00000000000056dc init_sdmmc_device:
    56dc:	b8 fc ff 4f 	movehi s5, 524280
    56e0:	00 f0 01 0f 	move s0, 124
    56e4:	60 04 00 0f 	move s3, 1
    56e8:	25 40 03 00 	or s1, s5, 208
    56ec:	45 00 03 00 	or s2, s5, 192
    56f0:	85 20 03 00 	or s4, s5, 200
    56f4:	01 00 00 88 	store_32 s0, (s1)
    56f8:	05 30 03 00 	or s0, s5, 204
    56fc:	60 00 00 88 	store_32 s3, (s0)
    5700:	60 fc 03 0f 	move s3, 255
    5704:	62 00 00 88 	store_32 s3, (s2)
    5708:	c4 00 00 a8 	load_32 s6, (s4)
    570c:	c6 04 00 01 	and s6, s6, 1
    5710:	c6 ff ff f3 	bz s6, -8 <init_sdmmc_device+0x2c>
    5714:	a5 10 03 00 	or s5, s5, 196
    5718:	c5 00 00 a8 	load_32 s6, (s5)
    571c:	62 00 00 88 	store_32 s3, (s2)
    5720:	c4 00 00 a8 	load_32 s6, (s4)
    5724:	c6 04 00 01 	and s6, s6, 1
    5728:	c6 ff ff f3 	bz s6, -8 <init_sdmmc_device+0x44>
    572c:	c5 00 00 a8 	load_32 s6, (s5)
    5730:	62 00 00 88 	store_32 s3, (s2)
    5734:	c4 00 00 a8 	load_32 s6, (s4)
    5738:	c6 04 00 01 	and s6, s6, 1
    573c:	c6 ff ff f3 	bz s6, -8 <init_sdmmc_device+0x58>
    5740:	c5 00 00 a8 	load_32 s6, (s5)
    5744:	62 00 00 88 	store_32 s3, (s2)
    5748:	c4 00 00 a8 	load_32 s6, (s4)
    574c:	c6 04 00 01 	and s6, s6, 1
    5750:	c6 ff ff f3 	bz s6, -8 <init_sdmmc_device+0x6c>
    5754:	c5 00 00 a8 	load_32 s6, (s5)
    5758:	62 00 00 88 	store_32 s3, (s2)
    575c:	c4 00 00 a8 	load_32 s6, (s4)
    5760:	c6 04 00 01 	and s6, s6, 1
    5764:	c6 ff ff f3 	bz s6, -8 <init_sdmmc_device+0x80>
    5768:	c5 00 00 a8 	load_32 s6, (s5)
    576c:	62 00 00 88 	store_32 s3, (s2)
    5770:	c4 00 00 a8 	load_32 s6, (s4)
    5774:	c6 04 00 01 	and s6, s6, 1
    5778:	c6 ff ff f3 	bz s6, -8 <init_sdmmc_device+0x94>
    577c:	c5 00 00 a8 	load_32 s6, (s5)
    5780:	62 00 00 88 	store_32 s3, (s2)
    5784:	c4 00 00 a8 	load_32 s6, (s4)
    5788:	c6 04 00 01 	and s6, s6, 1
    578c:	c6 ff ff f3 	bz s6, -8 <init_sdmmc_device+0xa8>
    5790:	c5 00 00 a8 	load_32 s6, (s5)
    5794:	62 00 00 88 	store_32 s3, (s2)
    5798:	c4 00 00 a8 	load_32 s6, (s4)
    579c:	c6 04 00 01 	and s6, s6, 1
    57a0:	c6 ff ff f3 	bz s6, -8 <init_sdmmc_device+0xbc>
    57a4:	c5 00 00 a8 	load_32 s6, (s5)
    57a8:	62 00 00 88 	store_32 s3, (s2)
    57ac:	c4 00 00 a8 	load_32 s6, (s4)
    57b0:	c6 04 00 01 	and s6, s6, 1
    57b4:	c6 ff ff f3 	bz s6, -8 <init_sdmmc_device+0xd0>
    57b8:	c5 00 00 a8 	load_32 s6, (s5)
    57bc:	62 00 00 88 	store_32 s3, (s2)
    57c0:	c4 00 00 a8 	load_32 s6, (s4)
    57c4:	c6 04 00 01 	and s6, s6, 1
    57c8:	c6 ff ff f3 	bz s6, -8 <init_sdmmc_device+0xe4>
    57cc:	e0 00 00 0f 	move s7, 0
    57d0:	c5 00 00 a8 	load_32 s6, (s5)
    57d4:	e0 00 00 88 	store_32 s7, (s0)
    57d8:	00 00 01 0f 	move s0, 64
    57dc:	02 00 00 88 	store_32 s0, (s2)
    57e0:	04 00 00 a8 	load_32 s0, (s4)
    57e4:	00 04 00 01 	and s0, s0, 1
    57e8:	c0 ff ff f3 	bz s0, -8 <init_sdmmc_device+0x104>
    57ec:	05 00 00 a8 	load_32 s0, (s5)
    57f0:	e2 00 00 88 	store_32 s7, (s2)
    57f4:	04 00 00 a8 	load_32 s0, (s4)
    57f8:	00 04 00 01 	and s0, s0, 1
    57fc:	c0 ff ff f3 	bz s0, -8 <init_sdmmc_device+0x118>
    5800:	05 00 00 a8 	load_32 s0, (s5)
    5804:	e2 00 00 88 	store_32 s7, (s2)
    5808:	04 00 00 a8 	load_32 s0, (s4)
    580c:	00 04 00 01 	and s0, s0, 1
    5810:	c0 ff ff f3 	bz s0, -8 <init_sdmmc_device+0x12c>
    5814:	05 00 00 a8 	load_32 s0, (s5)
    5818:	e2 00 00 88 	store_32 s7, (s2)
    581c:	04 00 00 a8 	load_32 s0, (s4)
    5820:	00 04 00 01 	and s0, s0, 1
    5824:	c0 ff ff f3 	bz s0, -8 <init_sdmmc_device+0x140>
    5828:	05 00 00 a8 	load_32 s0, (s5)
    582c:	e2 00 00 88 	store_32 s7, (s2)
    5830:	04 00 00 a8 	load_32 s0, (s4)
    5834:	00 04 00 01 	and s0, s0, 1
    5838:	c0 ff ff f3 	bz s0, -8 <init_sdmmc_device+0x154>
    583c:	c0 54 02 0f 	move s6, 149
    5840:	05 00 00 a8 	load_32 s0, (s5)
    5844:	c2 00 00 88 	store_32 s6, (s2)
    5848:	04 00 00 a8 	load_32 s0, (s4)
    584c:	00 04 00 01 	and s0, s0, 1
    5850:	c0 ff ff f3 	bz s0, -8 <init_sdmmc_device+0x16c>
    5854:	05 00 00 a8 	load_32 s0, (s5)
    5858:	00 fc ff 0f 	move s0, -1
    585c:	62 00 00 88 	store_32 s3, (s2)
    5860:	04 01 00 a8 	load_32 s8, (s4)
    5864:	08 05 00 01 	and s8, s8, 1
    5868:	c8 ff ff f3 	bz s8, -8 <init_sdmmc_device+0x184>
    586c:	05 01 00 a8 	load_32 s8, (s5)
    5870:	28 fd 03 10 	cmpeq_i s9, s8, 255
    5874:	49 00 00 f4 	bnz s9, 8 <init_sdmmc_device+0x1a0>
    5878:	05 00 00 f6 	b 20 <init_sdmmc_device+0x1b0>
    587c:	07 91 01 18 	cmplt_u s8, s7, 100
    5880:	e7 04 00 05 	add_i s7, s7, 1
    5884:	c8 fe ff f5 	bnz s8, -40 <init_sdmmc_device+0x180>
    5888:	67 00 00 f6 	b 412 <init_sdmmc_device+0x348>
    588c:	e8 04 00 11 	cmpne_i s7, s8, 1
    5890:	a7 0c 00 f4 	bnz s7, 404 <init_sdmmc_device+0x348>
    5894:	e0 04 01 0f 	move s7, 65
    5898:	00 01 00 0f 	move s8, 0
    589c:	e2 00 00 88 	store_32 s7, (s2)
    58a0:	24 01 00 a8 	load_32 s9, (s4)
    58a4:	29 05 00 01 	and s9, s9, 1
    58a8:	c9 ff ff f3 	bz s9, -8 <init_sdmmc_device+0x1c4>
    58ac:	25 01 00 a8 	load_32 s9, (s5)
    58b0:	02 01 00 88 	store_32 s8, (s2)
    58b4:	24 01 00 a8 	load_32 s9, (s4)
    58b8:	29 05 00 01 	and s9, s9, 1
    58bc:	c9 ff ff f3 	bz s9, -8 <init_sdmmc_device+0x1d8>
    58c0:	25 01 00 a8 	load_32 s9, (s5)
    58c4:	02 01 00 88 	store_32 s8, (s2)
    58c8:	24 01 00 a8 	load_32 s9, (s4)
    58cc:	29 05 00 01 	and s9, s9, 1
    58d0:	c9 ff ff f3 	bz s9, -8 <init_sdmmc_device+0x1ec>
    58d4:	25 01 00 a8 	load_32 s9, (s5)
    58d8:	02 01 00 88 	store_32 s8, (s2)
    58dc:	24 01 00 a8 	load_32 s9, (s4)
    58e0:	29 05 00 01 	and s9, s9, 1
    58e4:	c9 ff ff f3 	bz s9, -8 <init_sdmmc_device+0x200>
    58e8:	25 01 00 a8 	load_32 s9, (s5)
    58ec:	02 01 00 88 	store_32 s8, (s2)
    58f0:	24 01 00 a8 	load_32 s9, (s4)
    58f4:	29 05 00 01 	and s9, s9, 1
    58f8:	c9 ff ff f3 	bz s9, -8 <init_sdmmc_device+0x214>
    58fc:	25 01 00 a8 	load_32 s9, (s5)
    5900:	c2 00 00 88 	store_32 s6, (s2)
    5904:	24 01 00 a8 	load_32 s9, (s4)
    5908:	29 05 00 01 	and s9, s9, 1
    590c:	c9 ff ff f3 	bz s9, -8 <init_sdmmc_device+0x228>
    5910:	25 01 00 a8 	load_32 s9, (s5)
    5914:	20 01 f4 c0 	move s9, s8
    5918:	62 00 00 88 	store_32 s3, (s2)
    591c:	44 01 00 a8 	load_32 s10, (s4)
    5920:	4a 05 00 01 	and s10, s10, 1
    5924:	ca ff ff f3 	bz s10, -8 <init_sdmmc_device+0x240>
    5928:	45 01 00 a8 	load_32 s10, (s5)
    592c:	6a fd 03 10 	cmpeq_i s11, s10, 255
    5930:	4b 00 00 f4 	bnz s11, 8 <init_sdmmc_device+0x25c>
    5934:	05 00 00 f6 	b 20 <init_sdmmc_device+0x26c>
    5938:	49 91 01 18 	cmplt_u s10, s9, 100
    593c:	29 05 00 05 	add_i s9, s9, 1
    5940:	ca fe ff f5 	bnz s10, -40 <init_sdmmc_device+0x23c>
    5944:	38 00 00 f6 	b 224 <init_sdmmc_device+0x348>
    5948:	8a 00 00 f2 	bz s10, 16 <init_sdmmc_device+0x27c>
    594c:	2a 05 00 10 	cmpeq_i s9, s10, 1
    5950:	69 fa ff f5 	bnz s9, -180 <init_sdmmc_device+0x1c0>
    5954:	34 00 00 f6 	b 208 <init_sdmmc_device+0x348>
    5958:	e0 58 01 0f 	move s7, 86
    595c:	e2 00 00 88 	store_32 s7, (s2)
    5960:	e4 00 00 a8 	load_32 s7, (s4)
    5964:	e7 04 00 01 	and s7, s7, 1
    5968:	c7 ff ff f3 	bz s7, -8 <init_sdmmc_device+0x284>
    596c:	e5 00 00 a8 	load_32 s7, (s5)
    5970:	e0 00 00 0f 	move s7, 0
    5974:	e2 00 00 88 	store_32 s7, (s2)
    5978:	04 01 00 a8 	load_32 s8, (s4)
    597c:	08 05 00 01 	and s8, s8, 1
    5980:	c8 ff ff f3 	bz s8, -8 <init_sdmmc_device+0x29c>
    5984:	05 01 00 a8 	load_32 s8, (s5)
    5988:	e2 00 00 88 	store_32 s7, (s2)
    598c:	04 01 00 a8 	load_32 s8, (s4)
    5990:	08 05 00 01 	and s8, s8, 1
    5994:	c8 ff ff f3 	bz s8, -8 <init_sdmmc_device+0x2b0>
    5998:	05 01 00 a8 	load_32 s8, (s5)
    599c:	00 09 00 0f 	move s8, 2
    59a0:	02 01 00 88 	store_32 s8, (s2)
    59a4:	04 01 00 a8 	load_32 s8, (s4)
    59a8:	08 05 00 01 	and s8, s8, 1
    59ac:	c8 ff ff f3 	bz s8, -8 <init_sdmmc_device+0x2c8>
    59b0:	05 01 00 a8 	load_32 s8, (s5)
    59b4:	e2 00 00 88 	store_32 s7, (s2)
    59b8:	04 01 00 a8 	load_32 s8, (s4)
    59bc:	08 05 00 01 	and s8, s8, 1
    59c0:	c8 ff ff f3 	bz s8, -8 <init_sdmmc_device+0x2dc>
    59c4:	05 01 00 a8 	load_32 s8, (s5)
    59c8:	c2 00 00 88 	store_32 s6, (s2)
    59cc:	c4 00 00 a8 	load_32 s6, (s4)
    59d0:	c6 04 00 01 	and s6, s6, 1
    59d4:	c6 ff ff f3 	bz s6, -8 <init_sdmmc_device+0x2f0>
    59d8:	c5 00 00 a8 	load_32 s6, (s5)
    59dc:	62 00 00 88 	store_32 s3, (s2)
    59e0:	c4 00 00 a8 	load_32 s6, (s4)
    59e4:	c6 04 00 01 	and s6, s6, 1
    59e8:	c6 ff ff f3 	bz s6, -8 <init_sdmmc_device+0x304>
    59ec:	c5 00 00 a8 	load_32 s6, (s5)
    59f0:	06 fd 03 10 	cmpeq_i s8, s6, 255
    59f4:	48 00 00 f4 	bnz s8, 8 <init_sdmmc_device+0x320>
    59f8:	05 00 00 f6 	b 20 <init_sdmmc_device+0x330>
    59fc:	c7 90 01 18 	cmplt_u s6, s7, 100
    5a00:	e7 04 00 05 	add_i s7, s7, 1
    5a04:	c6 fe ff f5 	bnz s6, -40 <init_sdmmc_device+0x300>
    5a08:	07 00 00 f6 	b 28 <init_sdmmc_device+0x348>
    5a0c:	46 00 00 f2 	bz s6, 8 <init_sdmmc_device+0x338>
    5a10:	05 00 00 f6 	b 20 <init_sdmmc_device+0x348>
    5a14:	00 10 00 0f 	move s0, 4
    5a18:	01 00 00 88 	store_32 s0, (s1)
    5a1c:	00 00 00 0f 	move s0, 0
    5a20:	1f 00 00 f0 	ret
    5a24:	1f 00 00 f0 	ret

0000000000005a28 read_sdmmc_device:
    5a28:	de 03 ff 05 	add_i sp, sp, -64
    5a2c:	1e f3 00 88 	store_32 s24, 60(sp)
    5a30:	3e e3 00 88 	store_32 s25, 56(sp)
    5a34:	fe d3 00 88 	store_32 ra, 52(sp)
    5a38:	00 83 f0 c0 	move s24, s1
    5a3c:	20 03 f0 c0 	move s25, s0
    5a40:	24 f6 ff f9 	call -10096 <disable_interrupts>
    5a44:	24 00 00 4f 	movehi s1, 4
    5a48:	c0 00 00 0f 	move s6, 0
    5a4c:	41 50 4f 00 	or s2, s1, 5076
    5a50:	20 04 00 0f 	move s1, 1
    5a54:	62 00 00 a8 	load_32 s3, (s2)
    5a58:	e3 ff ff f5 	bnz s3, -4 <read_sdmmc_device+0x2c>
    5a5c:	62 00 00 aa 	load_sync s3, (s2)
    5a60:	83 00 13 c1 	cmpne_i s4, s3, s6
    5a64:	84 00 00 f4 	bnz s4, 16 <read_sdmmc_device+0x4c>
    5a68:	80 80 f0 c0 	move s4, s1
    5a6c:	82 00 00 8a 	store_sync s4, (s2)  
    5a70:	64 ff ff f3 	bz s4, -20 <read_sdmmc_device+0x34>
    5a74:	63 00 00 10 	cmpeq_i s3, s3, 0
    5a78:	63 04 00 01 	and s3, s3, 1
    5a7c:	c3 fe ff f3 	bz s3, -40 <read_sdmmc_device+0x2c>
    5a80:	38 fc ff 4f 	movehi s1, 524280
    5a84:	60 5c 01 0f 	move s3, 87
    5a88:	81 00 03 00 	or s4, s1, 192
    5a8c:	64 00 00 88 	store_32 s3, (s4)
    5a90:	61 20 03 00 	or s3, s1, 200
    5a94:	a3 00 00 a8 	load_32 s5, (s3)
    5a98:	a5 04 00 01 	and s5, s5, 1
    5a9c:	c5 ff ff f3 	bz s5, -8 <read_sdmmc_device+0x6c>
    5aa0:	a1 10 03 00 	or s5, s1, 196
    5aa4:	25 00 00 a8 	load_32 s1, (s5)
    5aa8:	39 60 00 0a 	shr s1, s25, 24
    5aac:	24 00 00 88 	store_32 s1, (s4)
    5ab0:	23 00 00 a8 	load_32 s1, (s3)
    5ab4:	21 04 00 01 	and s1, s1, 1
    5ab8:	c1 ff ff f3 	bz s1, -8 <read_sdmmc_device+0x88>
    5abc:	39 40 00 0a 	shr s1, s25, 16
    5ac0:	e5 00 00 a8 	load_32 s7, (s5)
    5ac4:	21 fc 03 01 	and s1, s1, 255
    5ac8:	24 00 00 88 	store_32 s1, (s4)
    5acc:	23 00 00 a8 	load_32 s1, (s3)
    5ad0:	21 04 00 01 	and s1, s1, 1
    5ad4:	c1 ff ff f3 	bz s1, -8 <read_sdmmc_device+0xa4>
    5ad8:	39 20 00 0a 	shr s1, s25, 8
    5adc:	e5 00 00 a8 	load_32 s7, (s5)
    5ae0:	21 fc 03 01 	and s1, s1, 255
    5ae4:	24 00 00 88 	store_32 s1, (s4)
    5ae8:	23 00 00 a8 	load_32 s1, (s3)
    5aec:	21 04 00 01 	and s1, s1, 1
    5af0:	c1 ff ff f3 	bz s1, -8 <read_sdmmc_device+0xc0>
    5af4:	25 00 00 a8 	load_32 s1, (s5)
    5af8:	39 fc 03 01 	and s1, s25, 255
    5afc:	24 00 00 88 	store_32 s1, (s4)
    5b00:	23 00 00 a8 	load_32 s1, (s3)
    5b04:	21 04 00 01 	and s1, s1, 1
    5b08:	c1 ff ff f3 	bz s1, -8 <read_sdmmc_device+0xd8>
    5b0c:	25 00 00 a8 	load_32 s1, (s5)
    5b10:	20 54 02 0f 	move s1, 149
    5b14:	24 00 00 88 	store_32 s1, (s4)
    5b18:	23 00 00 a8 	load_32 s1, (s3)
    5b1c:	21 04 00 01 	and s1, s1, 1
    5b20:	c1 ff ff f3 	bz s1, -8 <read_sdmmc_device+0xf0>
    5b24:	25 00 00 a8 	load_32 s1, (s5)
    5b28:	e0 fc 03 0f 	move s7, 255
    5b2c:	20 fc ff 0f 	move s1, -1
    5b30:	e4 00 00 88 	store_32 s7, (s4)
    5b34:	03 01 00 a8 	load_32 s8, (s3)
    5b38:	08 05 00 01 	and s8, s8, 1
    5b3c:	c8 ff ff f3 	bz s8, -8 <read_sdmmc_device+0x10c>
    5b40:	05 01 00 a8 	load_32 s8, (s5)
    5b44:	28 fd 03 10 	cmpeq_i s9, s8, 255
    5b48:	49 00 00 f4 	bnz s9, 8 <read_sdmmc_device+0x128>
    5b4c:	05 00 00 f6 	b 20 <read_sdmmc_device+0x138>
    5b50:	06 91 01 18 	cmplt_u s8, s6, 100
    5b54:	c6 04 00 05 	add_i s6, s6, 1
    5b58:	c8 fe ff f5 	bnz s8, -40 <read_sdmmc_device+0x108>
    5b5c:	17 00 00 f6 	b 92 <read_sdmmc_device+0x190>
    5b60:	c8 02 00 f4 	bnz s8, 88 <read_sdmmc_device+0x190>
    5b64:	04 00 00 f6 	b 16 <read_sdmmc_device+0x14c>
    5b68:	d8 00 54 c0 	add_i s6, s24, s8
    5b6c:	08 05 00 05 	add_i s8, s8, 1
    5b70:	26 00 00 82 	store_8 s1, (s6)
    5b74:	e4 00 00 88 	store_32 s7, (s4)
    5b78:	23 00 00 a8 	load_32 s1, (s3)
    5b7c:	21 04 00 01 	and s1, s1, 1
    5b80:	c1 ff ff f3 	bz s1, -8 <read_sdmmc_device+0x150>
    5b84:	25 00 00 a8 	load_32 s1, (s5)
    5b88:	c8 00 08 18 	cmplt_u s6, s8, 512
    5b8c:	e6 fe ff f5 	bnz s6, -36 <read_sdmmc_device+0x140>
    5b90:	e4 00 00 88 	store_32 s7, (s4)
    5b94:	23 00 00 a8 	load_32 s1, (s3)
    5b98:	21 04 00 01 	and s1, s1, 1
    5b9c:	c1 ff ff f3 	bz s1, -8 <read_sdmmc_device+0x16c>
    5ba0:	25 00 00 a8 	load_32 s1, (s5)
    5ba4:	20 00 00 0f 	move s1, 0
    5ba8:	22 00 00 88 	store_32 s1, (s2)
    5bac:	00 00 00 e8 	membar
    5bb0:	d0 f5 ff f9 	call -10432 <restore_interrupts>
    5bb4:	20 00 08 0f 	move s1, 512
    5bb8:	00 80 f0 c0 	move s0, s1
    5bbc:	fe d3 00 a8 	load_32 ra, 52(sp)
    5bc0:	3e e3 00 a8 	load_32 s25, 56(sp)
    5bc4:	1e f3 00 a8 	load_32 s24, 60(sp)
    5bc8:	de 03 01 05 	add_i sp, sp, 64
    5bcc:	1f 00 00 f0 	ret

0000000000005bd0 boot_vm_allocate_pages:
    5bd0:	de 03 ff 05 	add_i sp, sp, -64
    5bd4:	1e f3 00 88 	store_32 s24, 60(sp)
    5bd8:	fe e3 00 88 	store_32 ra, 56(sp)
    5bdc:	00 03 00 a8 	load_32 s24, (s0)
    5be0:	41 30 00 0b 	shl s2, s1, 12
    5be4:	38 00 51 c0 	add_i s1, s24, s2
    5be8:	20 00 00 88 	store_32 s1, (s0)
    5bec:	20 00 00 0f 	move s1, 0
    5bf0:	00 00 fc c0 	move s0, s24
    5bf4:	82 f3 ff f9 	call -12792 <memset>
    5bf8:	00 00 fc c0 	move s0, s24
    5bfc:	fe e3 00 a8 	load_32 ra, 56(sp)
    5c00:	1e f3 00 a8 	load_32 s24, 60(sp)
    5c04:	de 03 01 05 	add_i sp, sp, 64
    5c08:	1f 00 00 f0 	ret

0000000000005c0c boot_vm_map_pages:
    5c0c:	de 03 ff 05 	add_i sp, sp, -64
    5c10:	1e f3 00 88 	store_32 s24, 60(sp)
    5c14:	3e e3 00 88 	store_32 s25, 56(sp)
    5c18:	5e d3 00 88 	store_32 s26, 52(sp)
    5c1c:	7e c3 00 88 	store_32 s27, 48(sp)
    5c20:	fe b3 00 88 	store_32 ra, 44(sp)
    5c24:	00 03 f2 c0 	move s24, s4
    5c28:	20 83 f1 c0 	move s25, s3
    5c2c:	40 03 f1 c0 	move s26, s2
    5c30:	1e a0 00 88 	store_32 s0, 40(sp)
    5c34:	59 06 00 f2 	bz s25, 200 <boot_vm_map_pages+0xf0>
    5c38:	01 30 00 0a 	shr s0, s1, 12
    5c3c:	81 58 00 0a 	shr s4, s1, 22
    5c40:	20 00 00 0f 	move s1, 0
    5c44:	60 ff 0f 01 	and s27, s0, 1023
    5c48:	1e a0 00 a8 	load_32 s0, 40(sp)
    5c4c:	40 00 40 0f 	move s2, 4096
    5c50:	00 10 00 a8 	load_32 s0, 4(s0)
    5c54:	5e 50 00 88 	store_32 s2, 20(sp)
    5c58:	3e 60 00 88 	store_32 s1, 24(sp)
    5c5c:	a4 08 00 0b 	shl s5, s4, 2
    5c60:	60 80 52 c0 	add_i s3, s0, s5
    5c64:	43 00 00 a8 	load_32 s2, (s3)
    5c68:	82 00 00 f2 	bz s2, 16 <boot_vm_map_pages+0x6c>
    5c6c:	63 00 00 a8 	load_32 s3, (s3)
    5c70:	79 04 00 f2 	bz s25, 140 <boot_vm_map_pages+0xf0>
    5c74:	14 00 00 f6 	b 80 <boot_vm_map_pages+0xb8>
    5c78:	7e a0 00 a8 	load_32 s3, 40(sp)
    5c7c:	03 00 00 a8 	load_32 s0, (s3)
    5c80:	1e 80 00 88 	store_32 s0, 32(sp)
    5c84:	40 00 40 05 	add_i s2, s0, 4096
    5c88:	43 00 00 88 	store_32 s2, (s3)
    5c8c:	5e 50 00 a8 	load_32 s2, 20(sp)
    5c90:	9e 90 00 88 	store_32 s4, 36(sp)
    5c94:	be 70 00 88 	store_32 s5, 28(sp)
    5c98:	59 f3 ff f9 	call -12956 <memset>
    5c9c:	3e 60 00 a8 	load_32 s1, 24(sp)
    5ca0:	9e 90 00 a8 	load_32 s4, 36(sp)
    5ca4:	1e a0 00 a8 	load_32 s0, 40(sp)
    5ca8:	00 10 00 a8 	load_32 s0, 4(s0)
    5cac:	5e 70 00 a8 	load_32 s2, 28(sp)
    5cb0:	7e 80 00 a8 	load_32 s3, 32(sp)
    5cb4:	40 00 51 c0 	add_i s2, s0, s2
    5cb8:	63 04 00 00 	or s3, s3, 1
    5cbc:	62 00 00 88 	store_32 s3, (s2)
    5cc0:	f9 01 00 f2 	bz s25, 60 <boot_vm_map_pages+0xf0>
    5cc4:	a3 00 c0 01 	and s5, s3, -4096
    5cc8:	5b 08 00 0b 	shl s2, s27, 2
    5ccc:	7a 00 0c c0 	or s3, s26, s24
    5cd0:	45 00 51 c0 	add_i s2, s5, s2
    5cd4:	39 03 c0 05 	add_i s25, s25, -4096
    5cd8:	5a 03 40 05 	add_i s26, s26, 4096
    5cdc:	62 00 00 88 	store_32 s3, (s2)
    5ce0:	99 00 00 f2 	bz s25, 16 <boot_vm_map_pages+0xe4>
    5ce4:	7b 07 00 05 	add_i s27, s27, 1
    5ce8:	5b 00 10 18 	cmplt_u s2, s27, 1024
    5cec:	e2 fe ff f5 	bnz s2, -36 <boot_vm_map_pages+0xbc>
    5cf0:	84 04 00 05 	add_i s4, s4, 1
    5cf4:	60 83 f0 c0 	move s27, s1
    5cf8:	39 fb ff f5 	bnz s25, -156 <boot_vm_map_pages+0x50>
    5cfc:	fe b3 00 a8 	load_32 ra, 44(sp)
    5d00:	7e c3 00 a8 	load_32 s27, 48(sp)
    5d04:	5e d3 00 a8 	load_32 s26, 52(sp)
    5d08:	3e e3 00 a8 	load_32 s25, 56(sp)
    5d0c:	1e f3 00 a8 	load_32 s24, 60(sp)
    5d10:	de 03 01 05 	add_i sp, sp, 64
    5d14:	1f 00 00 f0 	ret

0000000000005d18 boot_setup_page_tables:
    5d18:	de 03 ff 05 	add_i sp, sp, -64
    5d1c:	1e f3 00 88 	store_32 s24, 60(sp)
    5d20:	3e e3 00 88 	store_32 s25, 56(sp)
    5d24:	5e d3 00 88 	store_32 s26, 52(sp)
    5d28:	7e c3 00 88 	store_32 s27, 48(sp)
    5d2c:	fe b3 00 88 	store_32 ra, 44(sp)
    5d30:	24 00 00 4f 	movehi s1, 4
    5d34:	1e 30 00 88 	store_32 s0, 12(sp)
    5d38:	00 03 40 4f 	movehi s24, 131072
    5d3c:	40 03 00 0f 	move s26, 0
    5d40:	21 d0 55 00 	or s1, s1, 5492
    5d44:	40 00 40 0f 	move s2, 4096
    5d48:	21 fc 3f 05 	add_i s1, s1, 4095
    5d4c:	61 03 c0 01 	and s27, s1, -4096
    5d50:	3b 03 5c c0 	add_i s25, s27, s24
    5d54:	00 80 fc c0 	move s0, s25
    5d58:	20 00 fd c0 	move s1, s26
    5d5c:	28 f3 ff f9 	call -13152 <memset>
    5d60:	a0 00 fc c0 	move s5, s24
    5d64:	7e a3 00 88 	store_32 s27, 40(sp)
    5d68:	be 90 00 88 	store_32 s5, 36(sp)
    5d6c:	05 00 40 00 	or s0, s5, 4096
    5d70:	59 00 00 f2 	bz s25, 8 <boot_setup_page_tables+0x60>
    5d74:	06 00 00 f6 	b 24 <boot_setup_page_tables+0x74>
    5d78:	5b 03 50 c0 	add_i s26, s27, s0
    5d7c:	80 80 fd c0 	move s4, s27
    5d80:	3e 33 00 a8 	load_32 s25, 12(sp)
    5d84:	99 0a 00 f2 	bz s25, 336 <boot_setup_page_tables+0x1bc>
    5d88:	2d 00 00 f6 	b 180 <boot_setup_page_tables+0x124>
    5d8c:	c0 00 fd c0 	move s6, s26
    5d90:	5b 03 50 c0 	add_i s26, s27, s0
    5d94:	00 00 40 0f 	move s0, 4096
    5d98:	1e 50 00 88 	store_32 s0, 20(sp)
    5d9c:	80 80 fd c0 	move s4, s27
    5da0:	60 03 f3 c0 	move s27, s6
    5da4:	de 80 00 88 	store_32 s6, 32(sp)
    5da8:	00 03 0c 0f 	move s24, 768
    5dac:	18 08 00 0b 	shl s0, s24, 2
    5db0:	04 00 50 c0 	add_i s0, s4, s0
    5db4:	20 80 52 c0 	add_i s1, s0, s5
    5db8:	01 00 00 a8 	load_32 s0, (s1)
    5dbc:	c0 01 00 f4 	bnz s0, 56 <boot_setup_page_tables+0xdc>
    5dc0:	1a 00 40 05 	add_i s0, s26, 4096
    5dc4:	1e 70 00 88 	store_32 s0, 28(sp)
    5dc8:	00 00 fd c0 	move s0, s26
    5dcc:	3e 60 00 88 	store_32 s1, 24(sp)
    5dd0:	20 00 f3 c0 	move s1, s6
    5dd4:	5e 50 00 a8 	load_32 s2, 20(sp)
    5dd8:	09 f3 ff f9 	call -13276 <memset>
    5ddc:	be 90 00 a8 	load_32 s5, 36(sp)
    5de0:	1a 04 00 00 	or s0, s26, 1
    5de4:	9e a0 00 a8 	load_32 s4, 40(sp)
    5de8:	3e 60 00 a8 	load_32 s1, 24(sp)
    5dec:	01 00 00 88 	store_32 s0, (s1)
    5df0:	5e 73 00 a8 	load_32 s26, 28(sp)
    5df4:	19 02 00 f2 	bz s25, 64 <boot_setup_page_tables+0x11c>
    5df8:	de 80 00 a8 	load_32 s6, 32(sp)
    5dfc:	00 00 c0 01 	and s0, s0, -4096
    5e00:	20 00 f3 c0 	move s1, s6
    5e04:	41 08 00 0b 	shl s2, s1, 2
    5e08:	40 00 51 c0 	add_i s2, s0, s2
    5e0c:	21 04 00 05 	add_i s1, s1, 1
    5e10:	7b 7c 00 00 	or s3, s27, 31
    5e14:	62 00 00 88 	store_32 s3, (s2)
    5e18:	39 03 c0 05 	add_i s25, s25, -4096
    5e1c:	41 fc 0f 16 	cmpgt_u s2, s1, 1023
    5e20:	7b 03 40 05 	add_i s27, s27, 4096
    5e24:	42 00 00 f4 	bnz s2, 8 <boot_setup_page_tables+0x114>
    5e28:	f9 fe ff f5 	bnz s25, -36 <boot_setup_page_tables+0xec>
    5e2c:	18 07 00 05 	add_i s24, s24, 1
    5e30:	f9 fb ff f5 	bnz s25, -132 <boot_setup_page_tables+0x94>
    5e34:	3e 33 00 a8 	load_32 s25, 12(sp)
    5e38:	f9 04 00 f2 	bz s25, 156 <boot_setup_page_tables+0x1bc>
    5e3c:	60 13 0c 0f 	move s27, 772
    5e40:	00 03 00 0f 	move s24, 0
    5e44:	00 00 40 0f 	move s0, 4096
    5e48:	1e 50 00 88 	store_32 s0, 20(sp)
    5e4c:	1e 83 00 88 	store_32 s24, 32(sp)
    5e50:	1b 08 00 0b 	shl s0, s27, 2
    5e54:	04 00 50 c0 	add_i s0, s4, s0
    5e58:	20 80 52 c0 	add_i s1, s0, s5
    5e5c:	01 00 00 a8 	load_32 s0, (s1)
    5e60:	c0 01 00 f4 	bnz s0, 56 <boot_setup_page_tables+0x180>
    5e64:	1a 00 40 05 	add_i s0, s26, 4096
    5e68:	1e 70 00 88 	store_32 s0, 28(sp)
    5e6c:	00 00 fd c0 	move s0, s26
    5e70:	3e 60 00 88 	store_32 s1, 24(sp)
    5e74:	3e 80 00 a8 	load_32 s1, 32(sp)
    5e78:	5e 50 00 a8 	load_32 s2, 20(sp)
    5e7c:	e0 f2 ff f9 	call -13440 <memset>
    5e80:	be 90 00 a8 	load_32 s5, 36(sp)
    5e84:	1a 04 00 00 	or s0, s26, 1
    5e88:	9e a0 00 a8 	load_32 s4, 40(sp)
    5e8c:	3e 60 00 a8 	load_32 s1, 24(sp)
    5e90:	01 00 00 88 	store_32 s0, (s1)
    5e94:	5e 73 00 a8 	load_32 s26, 28(sp)
    5e98:	f9 01 00 f2 	bz s25, 60 <boot_setup_page_tables+0x1bc>
    5e9c:	3e 80 00 a8 	load_32 s1, 32(sp)
    5ea0:	00 00 c0 01 	and s0, s0, -4096
    5ea4:	41 08 00 0b 	shl s2, s1, 2
    5ea8:	40 00 51 c0 	add_i s2, s0, s2
    5eac:	21 04 00 05 	add_i s1, s1, 1
    5eb0:	78 6c 00 00 	or s3, s24, 27
    5eb4:	62 00 00 88 	store_32 s3, (s2)
    5eb8:	39 03 c0 05 	add_i s25, s25, -4096
    5ebc:	41 fc 0f 16 	cmpgt_u s2, s1, 1023
    5ec0:	18 03 40 05 	add_i s24, s24, 4096
    5ec4:	42 00 00 f4 	bnz s2, 8 <boot_setup_page_tables+0x1b4>
    5ec8:	f9 fe ff f5 	bnz s25, -36 <boot_setup_page_tables+0x18c>
    5ecc:	7b 07 00 05 	add_i s27, s27, 1
    5ed0:	19 fc ff f5 	bnz s25, -128 <boot_setup_page_tables+0x138>
    5ed4:	68 03 00 4f 	movehi s27, 8
    5ed8:	00 03 00 0f 	move s24, 0
    5edc:	00 00 fd c0 	move s0, s26
    5ee0:	3a 83 5d c0 	add_i s25, s26, s27
    5ee4:	20 00 fc c0 	move s1, s24
    5ee8:	40 80 fd c0 	move s2, s27
    5eec:	c4 f2 ff f9 	call -13552 <memset>
    5ef0:	20 00 fc c0 	move s1, s24
    5ef4:	9e 90 00 a8 	load_32 s4, 36(sp)
    5ef8:	7e a0 00 a8 	load_32 s3, 40(sp)
    5efc:	c0 fc 0f 0f 	move s6, 1023
    5f00:	00 83 0f 0f 	move s24, 992
    5f04:	00 00 40 0f 	move s0, 4096
    5f08:	1e 40 00 88 	store_32 s0, 16(sp)
    5f0c:	3e 50 00 88 	store_32 s1, 20(sp)
    5f10:	06 08 00 0b 	shl s0, s6, 2
    5f14:	03 00 50 c0 	add_i s0, s3, s0
    5f18:	40 00 52 c0 	add_i s2, s0, s4
    5f1c:	02 00 00 a8 	load_32 s0, (s2)
    5f20:	00 02 00 f4 	bnz s0, 64 <boot_setup_page_tables+0x248>
    5f24:	19 00 40 05 	add_i s0, s25, 4096
    5f28:	1e 70 00 88 	store_32 s0, 28(sp)
    5f2c:	00 80 fc c0 	move s0, s25
    5f30:	5e 60 00 88 	store_32 s2, 24(sp)
    5f34:	5e 40 00 a8 	load_32 s2, 16(sp)
    5f38:	de 80 00 88 	store_32 s6, 32(sp)
    5f3c:	b0 f2 ff f9 	call -13632 <memset>
    5f40:	de 80 00 a8 	load_32 s6, 32(sp)
    5f44:	19 04 00 00 	or s0, s25, 1
    5f48:	3e 50 00 a8 	load_32 s1, 20(sp)
    5f4c:	9e 90 00 a8 	load_32 s4, 36(sp)
    5f50:	7e a0 00 a8 	load_32 s3, 40(sp)
    5f54:	5e 60 00 a8 	load_32 s2, 24(sp)
    5f58:	02 00 00 88 	store_32 s0, (s2)
    5f5c:	3e 73 00 a8 	load_32 s25, 28(sp)
    5f60:	fb 01 00 f2 	bz s27, 60 <boot_setup_page_tables+0x284>
    5f64:	00 00 c0 01 	and s0, s0, -4096
    5f68:	58 08 00 0b 	shl s2, s24, 2
    5f6c:	a0 00 51 c0 	add_i s5, s0, s2
    5f70:	18 07 00 05 	add_i s24, s24, 1
    5f74:	5a 6c 00 00 	or s2, s26, 27
    5f78:	45 00 00 88 	store_32 s2, (s5)
    5f7c:	7b 03 c0 05 	add_i s27, s27, -4096
    5f80:	58 fc 0f 16 	cmpgt_u s2, s24, 1023
    5f84:	5a 03 40 05 	add_i s26, s26, 4096
    5f88:	42 00 00 f4 	bnz s2, 8 <boot_setup_page_tables+0x278>
    5f8c:	fb fe ff f5 	bnz s27, -36 <boot_setup_page_tables+0x250>
    5f90:	c6 04 00 05 	add_i s6, s6, 1
    5f94:	00 83 f0 c0 	move s24, s1
    5f98:	db fb ff f5 	bnz s27, -136 <boot_setup_page_tables+0x1f8>
    5f9c:	68 03 00 4f 	movehi s27, 8
    5fa0:	a0 fc 0f 0f 	move s5, 1023
    5fa4:	40 c3 0f 0f 	move s26, 1008
    5fa8:	18 ff ff 4f 	movehi s24, 524280
    5fac:	20 00 00 0f 	move s1, 0
    5fb0:	00 00 40 0f 	move s0, 4096
    5fb4:	1e 40 00 88 	store_32 s0, 16(sp)
    5fb8:	3e 50 00 88 	store_32 s1, 20(sp)
    5fbc:	05 08 00 0b 	shl s0, s5, 2
    5fc0:	03 00 50 c0 	add_i s0, s3, s0
    5fc4:	40 00 52 c0 	add_i s2, s0, s4
    5fc8:	02 00 00 a8 	load_32 s0, (s2)
    5fcc:	00 02 00 f4 	bnz s0, 64 <boot_setup_page_tables+0x2f4>
    5fd0:	19 00 40 05 	add_i s0, s25, 4096
    5fd4:	1e 70 00 88 	store_32 s0, 28(sp)
    5fd8:	00 80 fc c0 	move s0, s25
    5fdc:	5e 60 00 88 	store_32 s2, 24(sp)
    5fe0:	5e 40 00 a8 	load_32 s2, 16(sp)
    5fe4:	be 80 00 88 	store_32 s5, 32(sp)
    5fe8:	85 f2 ff f9 	call -13804 <memset>
    5fec:	3e 50 00 a8 	load_32 s1, 20(sp)
    5ff0:	19 04 00 00 	or s0, s25, 1
    5ff4:	be 80 00 a8 	load_32 s5, 32(sp)
    5ff8:	9e 90 00 a8 	load_32 s4, 36(sp)
    5ffc:	7e a0 00 a8 	load_32 s3, 40(sp)
    6000:	5e 60 00 a8 	load_32 s2, 24(sp)
    6004:	02 00 00 88 	store_32 s0, (s2)
    6008:	3e 73 00 a8 	load_32 s25, 28(sp)
    600c:	fb 01 00 f2 	bz s27, 60 <boot_setup_page_tables+0x330>
    6010:	00 00 c0 01 	and s0, s0, -4096
    6014:	5a 08 00 0b 	shl s2, s26, 2
    6018:	c0 00 51 c0 	add_i s6, s0, s2
    601c:	5a 07 00 05 	add_i s26, s26, 1
    6020:	58 6c 00 00 	or s2, s24, 27
    6024:	46 00 00 88 	store_32 s2, (s6)
    6028:	7b 03 c0 05 	add_i s27, s27, -4096
    602c:	5a fc 0f 16 	cmpgt_u s2, s26, 1023
    6030:	18 03 40 05 	add_i s24, s24, 4096
    6034:	42 00 00 f4 	bnz s2, 8 <boot_setup_page_tables+0x324>
    6038:	fb fe ff f5 	bnz s27, -36 <boot_setup_page_tables+0x2fc>
    603c:	a5 04 00 05 	add_i s5, s5, 1
    6040:	40 83 f0 c0 	move s26, s1
    6044:	db fb ff f5 	bnz s27, -136 <boot_setup_page_tables+0x2a4>
    6048:	1e 30 00 a8 	load_32 s0, 12(sp)
    604c:	20 00 00 0f 	move s1, 0
    6050:	00 33 00 0a 	shr s24, s0, 12
    6054:	1f fc 03 4f 	movehi s0, 8191
    6058:	78 93 00 07 	mull_i s27, s24, 36
    605c:	00 00 40 00 	or s0, s0, 4096
    6060:	5b 00 10 c0 	and s2, s27, s0
    6064:	00 80 fc c0 	move s0, s25
    6068:	3e 80 00 88 	store_32 s1, 32(sp)
    606c:	59 03 51 c0 	add_i s26, s25, s2
    6070:	63 f2 ff f9 	call -13940 <memset>
    6074:	18 05 00 f2 	bz s24, 160 <boot_setup_page_tables+0x3fc>
    6078:	00 00 40 0f 	move s0, 4096
    607c:	1e 50 00 88 	store_32 s0, 20(sp)
    6080:	9e a0 00 a8 	load_32 s4, 40(sp)
    6084:	00 03 0d 0f 	move s24, 832
    6088:	be 90 00 a8 	load_32 s5, 36(sp)
    608c:	00 00 fd c0 	move s0, s26
    6090:	38 08 00 0b 	shl s1, s24, 2
    6094:	24 80 50 c0 	add_i s1, s4, s1
    6098:	41 83 52 c0 	add_i s26, s1, s5
    609c:	3a 00 00 a8 	load_32 s1, (s26)
    60a0:	a1 01 00 f4 	bnz s1, 52 <boot_setup_page_tables+0x3bc>
    60a4:	20 00 40 05 	add_i s1, s0, 4096
    60a8:	3e 70 00 88 	store_32 s1, 28(sp)
    60ac:	3e 80 00 a8 	load_32 s1, 32(sp)
    60b0:	5e 50 00 a8 	load_32 s2, 20(sp)
    60b4:	1e 60 00 88 	store_32 s0, 24(sp)
    60b8:	51 f2 ff f9 	call -14012 <memset>
    60bc:	be 90 00 a8 	load_32 s5, 36(sp)
    60c0:	9e a0 00 a8 	load_32 s4, 40(sp)
    60c4:	1e 60 00 a8 	load_32 s0, 24(sp)
    60c8:	20 04 00 00 	or s1, s0, 1
    60cc:	3a 00 00 88 	store_32 s1, (s26)
    60d0:	1e 70 00 a8 	load_32 s0, 28(sp)
    60d4:	7b 02 00 f2 	bz s27, 76 <boot_setup_page_tables+0x408>
    60d8:	c1 00 c0 01 	and s6, s1, -4096
    60dc:	3e 80 00 a8 	load_32 s1, 32(sp)
    60e0:	41 08 00 0b 	shl s2, s1, 2
    60e4:	46 00 51 c0 	add_i s2, s6, s2
    60e8:	21 04 00 05 	add_i s1, s1, 1
    60ec:	79 6c 00 00 	or s3, s25, 27
    60f0:	62 00 00 88 	store_32 s3, (s2)
    60f4:	7b 03 c0 05 	add_i s27, s27, -4096
    60f8:	41 fc 0f 16 	cmpgt_u s2, s1, 1023
    60fc:	39 03 40 05 	add_i s25, s25, 4096
    6100:	42 00 00 f4 	bnz s2, 8 <boot_setup_page_tables+0x3f0>
    6104:	fb fe ff f5 	bnz s27, -36 <boot_setup_page_tables+0x3c8>
    6108:	18 07 00 05 	add_i s24, s24, 1
    610c:	3b fc ff f5 	bnz s27, -124 <boot_setup_page_tables+0x378>
    6110:	04 00 00 f6 	b 16 <boot_setup_page_tables+0x408>
    6114:	9e a0 00 a8 	load_32 s4, 40(sp)
    6118:	be 90 00 a8 	load_32 s5, 36(sp)
    611c:	00 00 fd c0 	move s0, s26
    6120:	64 00 00 4f 	movehi s3, 4
    6124:	44 00 00 4f 	movehi s2, 4
    6128:	3f fc 00 4f 	movehi s1, 2047
    612c:	63 00 40 00 	or s3, s3, 4096
    6130:	42 10 40 00 	or s2, s2, 4100
    6134:	21 fc 7f 00 	or s1, s1, 8191
    6138:	c3 80 10 c0 	and s6, s3, s1
    613c:	22 80 10 c0 	and s1, s2, s1
    6140:	64 80 52 c0 	add_i s3, s4, s5
    6144:	66 00 00 88 	store_32 s3, (s6)
    6148:	00 30 00 0a 	shr s0, s0, 12
    614c:	01 00 00 88 	store_32 s0, (s1)
    6150:	fe b3 00 a8 	load_32 ra, 44(sp)
    6154:	7e c3 00 a8 	load_32 s27, 48(sp)
    6158:	5e d3 00 a8 	load_32 s26, 52(sp)
    615c:	3e e3 00 a8 	load_32 s25, 56(sp)
    6160:	1e f3 00 a8 	load_32 s24, 60(sp)
    6164:	de 03 01 05 	add_i sp, sp, 64
    6168:	1f 00 00 f0 	ret

000000000000616c vm_translation_map_init:
    616c:	04 00 00 4f 	movehi s0, 4
    6170:	20 60 4f 00 	or s1, s0, 5080
    6174:	04 00 00 4f 	movehi s0, 4
    6178:	21 10 00 88 	store_32 s1, 4(s1)
    617c:	00 80 4f 00 	or s0, s0, 5088
    6180:	21 00 00 88 	store_32 s1, (s1)
    6184:	2a 00 00 ac 	getcr s1, 10
    6188:	20 30 00 88 	store_32 s1, 12(s0)
    618c:	1f 00 00 f0 	ret

0000000000006190 create_translation_map:
    6190:	de 03 ff 05 	add_i sp, sp, -64
    6194:	1e f3 00 88 	store_32 s24, 60(sp)
    6198:	3e e3 00 88 	store_32 s25, 56(sp)
    619c:	5e d3 00 88 	store_32 s26, 52(sp)
    61a0:	7e c3 00 88 	store_32 s27, 48(sp)
    61a4:	fe b3 00 88 	store_32 ra, 44(sp)
    61a8:	04 00 00 4f 	movehi s0, 4
    61ac:	00 40 41 00 	or s0, s0, 4176
    61b0:	5b f6 ff f9 	call -9876 <slab_alloc>
    61b4:	00 03 f0 c0 	move s24, s0
    61b8:	80 01 00 f8 	call 1536 <vm_allocate_page>
    61bc:	18 02 00 f8 	call 2144 <page_to_pa>
    61c0:	18 30 00 88 	store_32 s0, 12(s24)
    61c4:	43 f4 ff f9 	call -12020 <disable_interrupts>
    61c8:	24 00 00 4f 	movehi s1, 4
    61cc:	20 03 f0 c0 	move s25, s0
    61d0:	00 04 00 0f 	move s0, 1
    61d4:	41 d3 4f 00 	or s26, s1, 5108
    61d8:	60 03 00 0f 	move s27, 0
    61dc:	3a 00 00 a8 	load_32 s1, (s26)
    61e0:	e1 ff ff f5 	bnz s1, -4 <create_translation_map+0x4c>
    61e4:	3a 00 00 aa 	load_sync s1, (s26)
    61e8:	41 80 1d c1 	cmpne_i s2, s1, s27
    61ec:	82 00 00 f4 	bnz s2, 16 <create_translation_map+0x6c>
    61f0:	40 00 f0 c0 	move s2, s0
    61f4:	5a 00 00 8a 	store_sync s2, (s26)  
    61f8:	62 ff ff f3 	bz s2, -20 <create_translation_map+0x54>
    61fc:	21 00 00 10 	cmpeq_i s1, s1, 0
    6200:	21 04 00 01 	and s1, s1, 1
    6204:	c1 fe ff f3 	bz s1, -40 <create_translation_map+0x4c>
    6208:	04 00 00 4f 	movehi s0, 4
    620c:	38 30 00 a8 	load_32 s1, 12(s24)
    6210:	40 00 c1 4f 	movehi s2, 395264
    6214:	00 80 4f 00 	or s0, s0, 5088
    6218:	42 00 30 00 	or s2, s2, 3072
    621c:	60 30 00 a8 	load_32 s3, 12(s0)
    6220:	01 00 51 c0 	add_i s0, s1, s2
    6224:	23 00 51 c0 	add_i s1, s3, s2
    6228:	40 00 10 0f 	move s2, 1024
    622c:	0e f2 ff f9 	call -14280 <memcpy>
    6230:	04 00 00 4f 	movehi s0, 4
    6234:	44 00 00 4f 	movehi s2, 4
    6238:	00 e0 4f 00 	or s0, s0, 5112
    623c:	20 00 00 a8 	load_32 s1, (s0)
    6240:	61 04 00 05 	add_i s3, s1, 1
    6244:	60 00 00 88 	store_32 s3, (s0)
    6248:	02 60 4f 00 	or s0, s2, 5080
    624c:	38 40 00 88 	store_32 s1, 16(s24)
    6250:	78 23 00 88 	store_32 s27, 8(s24)
    6254:	20 00 00 a8 	load_32 s1, (s0)
    6258:	38 00 00 88 	store_32 s1, (s24)
    625c:	18 10 00 88 	store_32 s0, 4(s24)
    6260:	01 13 00 88 	store_32 s24, 4(s1)
    6264:	18 10 00 a8 	load_32 s0, 4(s24)
    6268:	00 03 00 88 	store_32 s24, (s0)
    626c:	7a 03 00 88 	store_32 s27, (s26)
    6270:	00 00 00 e8 	membar
    6274:	00 80 fc c0 	move s0, s25
    6278:	1e f4 ff f9 	call -12168 <restore_interrupts>
    627c:	00 00 fc c0 	move s0, s24
    6280:	fe b3 00 a8 	load_32 ra, 44(sp)
    6284:	7e c3 00 a8 	load_32 s27, 48(sp)
    6288:	5e d3 00 a8 	load_32 s26, 52(sp)
    628c:	3e e3 00 a8 	load_32 s25, 56(sp)
    6290:	1e f3 00 a8 	load_32 s24, 60(sp)
    6294:	de 03 01 05 	add_i sp, sp, 64
    6298:	1f 00 00 f0 	ret

000000000000629c destroy_translation_map:
    629c:	de 03 ff 05 	add_i sp, sp, -64
    62a0:	1e f3 00 88 	store_32 s24, 60(sp)
    62a4:	3e e3 00 88 	store_32 s25, 56(sp)
    62a8:	5e d3 00 88 	store_32 s26, 52(sp)
    62ac:	fe c3 00 88 	store_32 ra, 48(sp)
    62b0:	00 03 f0 c0 	move s24, s0
    62b4:	07 f4 ff f9 	call -12260 <disable_interrupts>
    62b8:	24 00 00 4f 	movehi s1, 4
    62bc:	40 04 00 0f 	move s2, 1
    62c0:	20 03 00 0f 	move s25, 0
    62c4:	21 d0 4f 00 	or s1, s1, 5108
    62c8:	61 00 00 a8 	load_32 s3, (s1)
    62cc:	e3 ff ff f5 	bnz s3, -4 <destroy_translation_map+0x2c>
    62d0:	61 00 00 aa 	load_sync s3, (s1)
    62d4:	83 80 1c c1 	cmpne_i s4, s3, s25
    62d8:	84 00 00 f4 	bnz s4, 16 <destroy_translation_map+0x4c>
    62dc:	80 00 f1 c0 	move s4, s2
    62e0:	81 00 00 8a 	store_sync s4, (s1)  
    62e4:	64 ff ff f3 	bz s4, -20 <destroy_translation_map+0x34>
    62e8:	63 00 00 10 	cmpeq_i s3, s3, 0
    62ec:	63 04 00 01 	and s3, s3, 1
    62f0:	c3 fe ff f3 	bz s3, -40 <destroy_translation_map+0x2c>
    62f4:	58 10 00 a8 	load_32 s2, 4(s24)
    62f8:	78 00 00 a8 	load_32 s3, (s24)
    62fc:	43 10 00 88 	store_32 s2, 4(s3)
    6300:	58 10 00 a8 	load_32 s2, 4(s24)
    6304:	62 00 00 88 	store_32 s3, (s2)
    6308:	38 13 00 88 	store_32 s25, 4(s24)
    630c:	38 03 00 88 	store_32 s25, (s24)
    6310:	21 03 00 88 	store_32 s25, (s1)
    6314:	00 00 00 e8 	membar
    6318:	f6 f3 ff f9 	call -12328 <restore_interrupts>
    631c:	18 30 00 a8 	load_32 s0, 12(s24)
    6320:	20 00 c1 4f 	movehi s1, 395264
    6324:	40 83 50 c0 	add_i s26, s0, s1
    6328:	19 08 00 0b 	shl s0, s25, 2
    632c:	1a 00 50 c0 	add_i s0, s26, s0
    6330:	00 00 00 a8 	load_32 s0, (s0)
    6334:	20 04 00 01 	and s1, s0, 1
    6338:	81 00 00 f2 	bz s1, 16 <destroy_translation_map+0xac>
    633c:	00 00 c0 01 	and s0, s0, -4096
    6340:	9c 01 00 f8 	call 1648 <pa_to_page>
    6344:	60 01 00 f8 	call 1408 <dec_page_ref>
    6348:	39 07 00 05 	add_i s25, s25, 1
    634c:	19 00 0c 18 	cmplt_u s0, s25, 768
    6350:	c0 fe ff f5 	bnz s0, -40 <destroy_translation_map+0x8c>
    6354:	18 30 00 a8 	load_32 s0, 12(s24)
    6358:	96 01 00 f8 	call 1624 <pa_to_page>
    635c:	5a 01 00 f8 	call 1384 <dec_page_ref>
    6360:	04 00 00 4f 	movehi s0, 4
    6364:	20 00 fc c0 	move s1, s24
    6368:	00 40 41 00 	or s0, s0, 4176
    636c:	27 f6 ff f9 	call -10084 <slab_free>
    6370:	fe c3 00 a8 	load_32 ra, 48(sp)
    6374:	5e d3 00 a8 	load_32 s26, 52(sp)
    6378:	3e e3 00 a8 	load_32 s25, 56(sp)
    637c:	1e f3 00 a8 	load_32 s24, 60(sp)
    6380:	de 03 01 05 	add_i sp, sp, 64
    6384:	1f 00 00 f0 	ret

0000000000006388 vm_map_page:
    6388:	de 03 ff 05 	add_i sp, sp, -64
    638c:	1e f3 00 88 	store_32 s24, 60(sp)
    6390:	3e e3 00 88 	store_32 s25, 56(sp)
    6394:	5e d3 00 88 	store_32 s26, 52(sp)
    6398:	7e c3 00 88 	store_32 s27, 48(sp)
    639c:	fe b3 00 88 	store_32 ra, 44(sp)
    63a0:	60 00 c0 4f 	movehi s3, 393216
    63a4:	40 03 f0 c0 	move s26, s0
    63a8:	3e a0 00 88 	store_32 s1, 40(sp)
    63ac:	01 30 00 0a 	shr s0, s1, 12
    63b0:	5e 90 00 88 	store_32 s2, 36(sp)
    63b4:	21 5b 00 0a 	shr s25, s1, 22
    63b8:	61 80 81 c1 	cmplt_u s3, s1, s3
    63bc:	00 fc 0f 01 	and s0, s0, 1023
    63c0:	1e 80 00 88 	store_32 s0, 32(sp)
    63c4:	c3 05 00 f4 	bnz s3, 184 <vm_map_page+0xf4>
    63c8:	c2 f3 ff f9 	call -12536 <disable_interrupts>
    63cc:	24 00 00 4f 	movehi s1, 4
    63d0:	60 00 f0 c0 	move s3, s0
    63d4:	00 04 00 0f 	move s0, 1
    63d8:	61 d3 4f 00 	or s27, s1, 5108
    63dc:	40 03 00 0f 	move s26, 0
    63e0:	3b 00 00 a8 	load_32 s1, (s27)
    63e4:	e1 ff ff f5 	bnz s1, -4 <vm_map_page+0x58>
    63e8:	3b 00 00 aa 	load_sync s1, (s27)
    63ec:	41 00 1d c1 	cmpne_i s2, s1, s26
    63f0:	82 00 00 f4 	bnz s2, 16 <vm_map_page+0x78>
    63f4:	40 00 f0 c0 	move s2, s0
    63f8:	5b 00 00 8a 	store_sync s2, (s27)  
    63fc:	62 ff ff f3 	bz s2, -20 <vm_map_page+0x60>
    6400:	21 00 00 10 	cmpeq_i s1, s1, 0
    6404:	21 04 00 01 	and s1, s1, 1
    6408:	c1 fe ff f3 	bz s1, -40 <vm_map_page+0x58>
    640c:	04 00 00 4f 	movehi s0, 4
    6410:	19 0b 00 0b 	shl s24, s25, 2
    6414:	20 03 c1 4f 	movehi s25, 395264
    6418:	00 80 4f 00 	or s0, s0, 5088
    641c:	00 30 00 a8 	load_32 s0, 12(s0)
    6420:	00 00 5c c0 	add_i s0, s0, s24
    6424:	40 80 5c c0 	add_i s2, s0, s25
    6428:	02 00 00 a8 	load_32 s0, (s2)
    642c:	20 04 00 01 	and s1, s0, 1
    6430:	21 08 00 f4 	bnz s1, 260 <vm_map_page+0x1ac>
    6434:	5e 60 00 88 	store_32 s2, 24(sp)
    6438:	7e 70 00 88 	store_32 s3, 28(sp)
    643c:	df 00 00 f8 	call 892 <vm_allocate_page>
    6440:	77 01 00 f8 	call 1500 <page_to_pa>
    6444:	24 00 00 4f 	movehi s1, 4
    6448:	21 60 4f 00 	or s1, s1, 5080
    644c:	41 10 00 a8 	load_32 s2, 4(s1)
    6450:	62 80 00 c1 	cmpeq_i s3, s2, s1
    6454:	a3 06 00 f4 	bnz s3, 212 <vm_map_page+0x1a0>
    6458:	00 04 00 00 	or s0, s0, 1
    645c:	62 30 00 a8 	load_32 s3, 12(s2)
    6460:	63 00 5c c0 	add_i s3, s3, s24
    6464:	63 80 5c c0 	add_i s3, s3, s25
    6468:	03 00 00 88 	store_32 s0, (s3)
    646c:	42 10 00 a8 	load_32 s2, 4(s2)
    6470:	62 80 10 c1 	cmpne_i s3, s2, s1
    6474:	43 ff ff f5 	bnz s3, -24 <vm_map_page+0xd4>
    6478:	2e 00 00 f6 	b 184 <vm_map_page+0x1a8>
    647c:	95 f3 ff f9 	call -12716 <disable_interrupts>
    6480:	80 00 f0 c0 	move s4, s0
    6484:	1a 20 00 05 	add_i s0, s26, 8
    6488:	20 04 00 0f 	move s1, 1
    648c:	60 03 00 0f 	move s27, 0
    6490:	5a 20 00 a8 	load_32 s2, 8(s26)
    6494:	e2 ff ff f5 	bnz s2, -4 <vm_map_page+0x108>
    6498:	40 00 00 aa 	load_sync s2, (s0)
    649c:	62 80 1d c1 	cmpne_i s3, s2, s27
    64a0:	83 00 00 f4 	bnz s3, 16 <vm_map_page+0x128>
    64a4:	60 80 f0 c0 	move s3, s1
    64a8:	60 00 00 8a 	store_sync s3, (s0)  
    64ac:	63 ff ff f3 	bz s3, -20 <vm_map_page+0x110>
    64b0:	42 00 00 10 	cmpeq_i s2, s2, 0
    64b4:	42 04 00 01 	and s2, s2, 1
    64b8:	c2 fe ff f3 	bz s2, -40 <vm_map_page+0x108>
    64bc:	1a 30 00 a8 	load_32 s0, 12(s26)
    64c0:	39 08 00 0b 	shl s1, s25, 2
    64c4:	00 03 c1 4f 	movehi s24, 395264
    64c8:	00 80 50 c0 	add_i s0, s0, s1
    64cc:	20 03 5c c0 	add_i s25, s0, s24
    64d0:	19 00 00 a8 	load_32 s0, (s25)
    64d4:	20 04 00 01 	and s1, s0, 1
    64d8:	e1 00 00 f4 	bnz s1, 28 <vm_map_page+0x16c>
    64dc:	9e 70 00 88 	store_32 s4, 28(sp)
    64e0:	b6 00 00 f8 	call 728 <vm_allocate_page>
    64e4:	4e 01 00 f8 	call 1336 <page_to_pa>
    64e8:	9e 70 00 a8 	load_32 s4, 28(sp)
    64ec:	00 04 00 00 	or s0, s0, 1
    64f0:	19 00 00 88 	store_32 s0, (s25)
    64f4:	00 00 5c c0 	add_i s0, s0, s24
    64f8:	3e 80 00 a8 	load_32 s1, 32(sp)
    64fc:	00 00 c0 01 	and s0, s0, -4096
    6500:	21 08 00 0b 	shl s1, s1, 2
    6504:	00 80 00 c0 	or s0, s0, s1
    6508:	3e 90 00 a8 	load_32 s1, 36(sp)
    650c:	20 00 00 88 	store_32 s1, (s0)
    6510:	1e a0 00 a8 	load_32 s0, 40(sp)
    6514:	00 00 00 ea 	tlbinval s0
    6518:	7a 23 00 88 	store_32 s27, 8(s26)
    651c:	00 00 00 e8 	membar
    6520:	00 00 f2 c0 	move s0, s4
    6524:	10 00 00 f6 	b 64 <vm_map_page+0x1dc>
    6528:	1e 60 00 a8 	load_32 s0, 24(sp)
    652c:	00 00 00 a8 	load_32 s0, (s0)
    6530:	7e 70 00 a8 	load_32 s3, 28(sp)
    6534:	00 80 5c c0 	add_i s0, s0, s25
    6538:	3e 80 00 a8 	load_32 s1, 32(sp)
    653c:	00 00 c0 01 	and s0, s0, -4096
    6540:	21 08 00 0b 	shl s1, s1, 2
    6544:	00 80 00 c0 	or s0, s0, s1
    6548:	3e 90 00 a8 	load_32 s1, 36(sp)
    654c:	20 00 00 88 	store_32 s1, (s0)
    6550:	1e a0 00 a8 	load_32 s0, 40(sp)
    6554:	00 00 00 ea 	tlbinval s0
    6558:	5b 03 00 88 	store_32 s26, (s27)
    655c:	00 00 00 e8 	membar
    6560:	00 80 f1 c0 	move s0, s3
    6564:	63 f3 ff f9 	call -12916 <restore_interrupts>
    6568:	fe b3 00 a8 	load_32 ra, 44(sp)
    656c:	7e c3 00 a8 	load_32 s27, 48(sp)
    6570:	5e d3 00 a8 	load_32 s26, 52(sp)
    6574:	3e e3 00 a8 	load_32 s25, 56(sp)
    6578:	1e f3 00 a8 	load_32 s24, 60(sp)
    657c:	de 03 01 05 	add_i sp, sp, 64
    6580:	1f 00 00 f0 	ret

0000000000006584 query_translation_map:
    6584:	de 03 ff 05 	add_i sp, sp, -64
    6588:	1e f3 00 88 	store_32 s24, 60(sp)
    658c:	3e e3 00 88 	store_32 s25, 56(sp)
    6590:	5e d3 00 88 	store_32 s26, 52(sp)
    6594:	fe c3 00 88 	store_32 ra, 48(sp)
    6598:	00 03 f0 c0 	move s24, s0
    659c:	01 30 00 0a 	shr s0, s1, 12
    65a0:	40 00 c0 4f 	movehi s2, 393216
    65a4:	21 5b 00 0a 	shr s25, s1, 22
    65a8:	21 00 81 c1 	cmplt_u s1, s1, s2
    65ac:	40 ff 0f 01 	and s26, s0, 1023
    65b0:	61 04 00 f4 	bnz s1, 140 <query_translation_map+0xb8>
    65b4:	47 f3 ff f9 	call -13028 <disable_interrupts>
    65b8:	24 00 00 4f 	movehi s1, 4
    65bc:	60 04 00 0f 	move s3, 1
    65c0:	40 00 00 0f 	move s2, 0
    65c4:	21 d0 4f 00 	or s1, s1, 5108
    65c8:	81 00 00 a8 	load_32 s4, (s1)
    65cc:	e4 ff ff f5 	bnz s4, -4 <query_translation_map+0x44>
    65d0:	81 00 00 aa 	load_sync s4, (s1)
    65d4:	a4 00 11 c1 	cmpne_i s5, s4, s2
    65d8:	85 00 00 f4 	bnz s5, 16 <query_translation_map+0x64>
    65dc:	a0 80 f1 c0 	move s5, s3
    65e0:	a1 00 00 8a 	store_sync s5, (s1)  
    65e4:	65 ff ff f3 	bz s5, -20 <query_translation_map+0x4c>
    65e8:	84 00 00 10 	cmpeq_i s4, s4, 0
    65ec:	84 04 00 01 	and s4, s4, 1
    65f0:	c4 fe ff f3 	bz s4, -40 <query_translation_map+0x44>
    65f4:	64 00 00 4f 	movehi s3, 4
    65f8:	99 08 00 0b 	shl s4, s25, 2
    65fc:	63 80 4f 00 	or s3, s3, 5088
    6600:	63 30 00 a8 	load_32 s3, 12(s3)
    6604:	83 00 52 c0 	add_i s4, s3, s4
    6608:	60 00 c1 4f 	movehi s3, 395264
    660c:	84 80 51 c0 	add_i s4, s4, s3
    6610:	84 00 00 a8 	load_32 s4, (s4)
    6614:	20 03 f1 c0 	move s25, s2
    6618:	a4 04 00 01 	and s5, s4, 1
    661c:	c5 00 00 f2 	bz s5, 24 <query_translation_map+0xb0>
    6620:	64 80 51 c0 	add_i s3, s4, s3
    6624:	9a 08 00 0b 	shl s4, s26, 2
    6628:	63 00 c0 01 	and s3, s3, -4096
    662c:	63 00 02 c0 	or s3, s3, s4
    6630:	23 03 00 a8 	load_32 s25, (s3)
    6634:	41 00 00 88 	store_32 s2, (s1)
    6638:	1f 00 00 f6 	b 124 <query_translation_map+0x130>
    663c:	25 f3 ff f9 	call -13164 <disable_interrupts>
    6640:	58 20 00 05 	add_i s2, s24, 8
    6644:	60 04 00 0f 	move s3, 1
    6648:	20 00 00 0f 	move s1, 0
    664c:	98 20 00 a8 	load_32 s4, 8(s24)
    6650:	e4 ff ff f5 	bnz s4, -4 <query_translation_map+0xc8>
    6654:	82 00 00 aa 	load_sync s4, (s2)
    6658:	a4 80 10 c1 	cmpne_i s5, s4, s1
    665c:	85 00 00 f4 	bnz s5, 16 <query_translation_map+0xe8>
    6660:	a0 80 f1 c0 	move s5, s3
    6664:	a2 00 00 8a 	store_sync s5, (s2)  
    6668:	65 ff ff f3 	bz s5, -20 <query_translation_map+0xd0>
    666c:	84 00 00 10 	cmpeq_i s4, s4, 0
    6670:	84 04 00 01 	and s4, s4, 1
    6674:	c4 fe ff f3 	bz s4, -40 <query_translation_map+0xc8>
    6678:	58 30 00 a8 	load_32 s2, 12(s24)
    667c:	79 08 00 0b 	shl s3, s25, 2
    6680:	62 80 51 c0 	add_i s3, s2, s3
    6684:	40 00 c1 4f 	movehi s2, 395264
    6688:	63 00 51 c0 	add_i s3, s3, s2
    668c:	63 00 00 a8 	load_32 s3, (s3)
    6690:	20 83 f0 c0 	move s25, s1
    6694:	83 04 00 01 	and s4, s3, 1
    6698:	c4 00 00 f2 	bz s4, 24 <query_translation_map+0x12c>
    669c:	43 00 51 c0 	add_i s2, s3, s2
    66a0:	7a 08 00 0b 	shl s3, s26, 2
    66a4:	42 00 c0 01 	and s2, s2, -4096
    66a8:	42 80 01 c0 	or s2, s2, s3
    66ac:	22 03 00 a8 	load_32 s25, (s2)
    66b0:	38 20 00 88 	store_32 s1, 8(s24)
    66b4:	00 00 00 e8 	membar
    66b8:	0e f3 ff f9 	call -13256 <restore_interrupts>
    66bc:	00 80 fc c0 	move s0, s25
    66c0:	fe c3 00 a8 	load_32 ra, 48(sp)
    66c4:	5e d3 00 a8 	load_32 s26, 52(sp)
    66c8:	3e e3 00 a8 	load_32 s25, 56(sp)
    66cc:	1e f3 00 a8 	load_32 s24, 60(sp)
    66d0:	de 03 01 05 	add_i sp, sp, 64
    66d4:	1f 00 00 f0 	ret

00000000000066d8 switch_to_translation_map:
    66d8:	20 30 00 a8 	load_32 s1, 12(s0)
    66dc:	2a 00 00 8c 	setcr s1, 10
    66e0:	00 40 00 a8 	load_32 s0, 16(s0)
    66e4:	09 00 00 8c 	setcr s0, 9
    66e8:	1f 00 00 f0 	ret

00000000000066ec vm_page_init:
    66ec:	24 00 00 4f 	movehi s1, 4
    66f0:	64 00 00 4f 	movehi s3, 4
    66f4:	a4 00 00 4f 	movehi s5, 4
    66f8:	81 00 49 00 	or s4, s1, 4672
    66fc:	23 f0 4f 00 	or s1, s3, 5116
    6700:	40 30 00 0a 	shr s2, s0, 12
    6704:	04 00 00 88 	store_32 s0, (s4)
    6708:	05 10 40 00 	or s0, s5, 4100
    670c:	21 10 00 88 	store_32 s1, 4(s1)
    6710:	21 00 00 88 	store_32 s1, (s1)
    6714:	e0 00 00 a8 	load_32 s7, (s0)
    6718:	02 fc ff 05 	add_i s0, s2, -1
    671c:	47 00 30 c1 	cmpge_i s2, s7, s0
    6720:	a2 04 00 f4 	bnz s2, 148 <vm_page_init+0xc8>
    6724:	40 00 d0 4f 	movehi s2, 425984
    6728:	07 91 00 07 	mull_i s8, s7, 36
    672c:	80 00 00 0f 	move s4, 0
    6730:	62 60 00 00 	or s3, s2, 24
    6734:	a8 80 51 c0 	add_i s5, s8, s3
    6738:	c2 10 00 00 	or s6, s2, 4
    673c:	28 01 51 c0 	add_i s9, s8, s2
    6740:	85 00 00 88 	store_32 s4, (s5)
    6744:	a2 50 00 00 	or s5, s2, 20
    6748:	48 81 52 c0 	add_i s10, s8, s5
    674c:	08 01 53 c0 	add_i s8, s8, s6
    6750:	e7 04 00 05 	add_i s7, s7, 1
    6754:	8a 00 00 88 	store_32 s4, (s10)
    6758:	29 00 00 88 	store_32 s1, (s9)
    675c:	28 00 00 88 	store_32 s1, (s8)
    6760:	47 01 30 c1 	cmpge_i s10, s7, s0
    6764:	21 11 00 88 	store_32 s9, 4(s1)
    6768:	08 01 00 a8 	load_32 s8, (s8)
    676c:	28 01 00 88 	store_32 s9, (s8)
    6770:	2a 02 00 f4 	bnz s10, 68 <vm_page_init+0xc8>
    6774:	07 91 00 07 	mull_i s8, s7, 36
    6778:	41 01 00 a8 	load_32 s10, (s1)
    677c:	e7 04 00 05 	add_i s7, s7, 1
    6780:	28 81 51 c0 	add_i s9, s8, s3
    6784:	68 01 51 c0 	add_i s11, s8, s2
    6788:	89 00 00 88 	store_32 s4, (s9)
    678c:	28 81 52 c0 	add_i s9, s8, s5
    6790:	08 01 53 c0 	add_i s8, s8, s6
    6794:	89 00 00 88 	store_32 s4, (s9)
    6798:	27 01 40 c1 	cmplt_i s9, s7, s0
    679c:	4b 01 00 88 	store_32 s10, (s11)
    67a0:	28 00 00 88 	store_32 s1, (s8)
    67a4:	6a 11 00 88 	store_32 s11, 4(s10)
    67a8:	08 01 00 a8 	load_32 s8, (s8)
    67ac:	68 01 00 88 	store_32 s11, (s8)
    67b0:	29 fe ff f5 	bnz s9, -60 <vm_page_init+0x88>
    67b4:	1f 00 00 f0 	ret

00000000000067b8 vm_allocate_page:
    67b8:	de 03 fe 05 	add_i sp, sp, -128
    67bc:	1e f3 01 88 	store_32 s24, 124(sp)
    67c0:	3e e3 01 88 	store_32 s25, 120(sp)
    67c4:	fe d3 01 88 	store_32 ra, 116(sp)
    67c8:	c2 f2 ff f9 	call -13560 <disable_interrupts>
    67cc:	24 00 00 4f 	movehi s1, 4
    67d0:	40 04 00 0f 	move s2, 1
    67d4:	00 03 00 0f 	move s24, 0
    67d8:	21 10 50 00 	or s1, s1, 5124
    67dc:	61 00 00 a8 	load_32 s3, (s1)
    67e0:	e3 ff ff f5 	bnz s3, -4 <vm_allocate_page+0x24>
    67e4:	61 00 00 aa 	load_sync s3, (s1)
    67e8:	83 00 1c c1 	cmpne_i s4, s3, s24
    67ec:	84 00 00 f4 	bnz s4, 16 <vm_allocate_page+0x44>
    67f0:	80 00 f1 c0 	move s4, s2
    67f4:	81 00 00 8a 	store_sync s4, (s1)  
    67f8:	64 ff ff f3 	bz s4, -20 <vm_allocate_page+0x2c>
    67fc:	63 00 00 10 	cmpeq_i s3, s3, 0
    6800:	63 04 00 01 	and s3, s3, 1
    6804:	c3 fe ff f3 	bz s3, -40 <vm_allocate_page+0x24>
    6808:	64 00 00 4f 	movehi s3, 4
    680c:	63 f0 4f 00 	or s3, s3, 5116
    6810:	23 13 00 a8 	load_32 s25, 4(s3)
    6814:	79 80 01 c1 	cmpeq_i s3, s25, s3
    6818:	03 04 00 f4 	bnz s3, 128 <vm_allocate_page+0xe0>
    681c:	79 10 00 a8 	load_32 s3, 4(s25)
    6820:	99 00 00 a8 	load_32 s4, (s25)
    6824:	64 10 00 88 	store_32 s3, 4(s4)
    6828:	79 10 00 a8 	load_32 s3, 4(s25)
    682c:	83 00 00 88 	store_32 s4, (s3)
    6830:	59 00 00 f4 	bnz s25, 8 <vm_allocate_page+0x80>
    6834:	19 00 00 f6 	b 100 <vm_allocate_page+0xe0>
    6838:	19 63 00 88 	store_32 s24, 24(s25)
    683c:	19 53 00 88 	store_32 s24, 20(s25)
    6840:	19 73 00 88 	store_32 s24, 28(s25)
    6844:	59 80 00 88 	store_32 s2, 32(s25)
    6848:	01 03 00 88 	store_32 s24, (s1)
    684c:	00 00 00 e8 	membar
    6850:	a8 f2 ff f9 	call -13664 <restore_interrupts>
    6854:	00 00 30 4f 	movehi s0, 98304
    6858:	19 00 50 c0 	add_i s0, s25, s0
    685c:	3c e0 38 4f 	movehi s1, 116508
    6860:	40 00 40 0f 	move s2, 4096
    6864:	00 08 00 0a 	shr s0, s0, 2
    6868:	21 00 40 00 	or s1, s1, 4096
    686c:	00 80 70 c0 	mull_i s0, s0, s1
    6870:	20 00 c1 4f 	movehi s1, 395264
    6874:	00 80 50 c0 	add_i s0, s0, s1
    6878:	20 00 fc c0 	move s1, s24
    687c:	60 f0 ff f9 	call -16000 <memset>
    6880:	00 80 fc c0 	move s0, s25
    6884:	fe d3 01 a8 	load_32 ra, 116(sp)
    6888:	3e e3 01 a8 	load_32 s25, 120(sp)
    688c:	1e f3 01 a8 	load_32 s24, 124(sp)
    6890:	de 03 02 05 	add_i sp, sp, 128
    6894:	1f 00 00 f0 	ret
    6898:	00 00 00 4f 	movehi s0, 0
    689c:	00 a8 13 00 	or s0, s0, 1258
    68a0:	1e 00 00 88 	store_32 s0, (sp)
    68a4:	43 f0 ff f9 	call -16116 <panic>

00000000000068a8 inc_page_ref:
    68a8:	00 80 00 05 	add_i s0, s0, 32
    68ac:	20 00 00 aa 	load_sync s1, (s0)
    68b0:	41 04 00 05 	add_i s2, s1, 1
    68b4:	20 80 f0 c0 	move s1, s1
    68b8:	40 00 00 8a 	store_sync s2, (s0)  
    68bc:	82 ff ff f3 	bz s2, -16 <inc_page_ref+0x4>
    68c0:	1f 00 00 f0 	ret

00000000000068c4 dec_page_ref:
    68c4:	de 03 fe 05 	add_i sp, sp, -128
    68c8:	1e f3 01 88 	store_32 s24, 124(sp)
    68cc:	fe e3 01 88 	store_32 ra, 120(sp)
    68d0:	00 03 f0 c0 	move s24, s0
    68d4:	18 80 00 a8 	load_32 s0, 32(s24)
    68d8:	00 00 00 12 	cmpgt_i s0, s0, 0
    68dc:	40 00 00 f4 	bnz s0, 8 <dec_page_ref+0x20>
    68e0:	28 00 00 f6 	b 160 <dec_page_ref+0xbc>
    68e4:	18 80 00 05 	add_i s0, s24, 32
    68e8:	20 00 00 aa 	load_sync s1, (s0)
    68ec:	41 fc ff 05 	add_i s2, s1, -1
    68f0:	20 80 f0 c0 	move s1, s1
    68f4:	40 00 00 8a 	store_sync s2, (s0)  
    68f8:	82 ff ff f3 	bz s2, -16 <dec_page_ref+0x24>
    68fc:	01 04 00 11 	cmpne_i s0, s1, 1
    6900:	80 03 00 f4 	bnz s0, 112 <dec_page_ref+0xac>
    6904:	73 f2 ff f9 	call -13876 <disable_interrupts>
    6908:	24 00 00 4f 	movehi s1, 4
    690c:	60 04 00 0f 	move s3, 1
    6910:	40 00 00 0f 	move s2, 0
    6914:	21 10 50 00 	or s1, s1, 5124
    6918:	81 00 00 a8 	load_32 s4, (s1)
    691c:	e4 ff ff f5 	bnz s4, -4 <dec_page_ref+0x54>
    6920:	81 00 00 aa 	load_sync s4, (s1)
    6924:	a4 00 11 c1 	cmpne_i s5, s4, s2
    6928:	85 00 00 f4 	bnz s5, 16 <dec_page_ref+0x74>
    692c:	a0 80 f1 c0 	move s5, s3
    6930:	a1 00 00 8a 	store_sync s5, (s1)  
    6934:	65 ff ff f3 	bz s5, -20 <dec_page_ref+0x5c>
    6938:	84 00 00 10 	cmpeq_i s4, s4, 0
    693c:	84 04 00 01 	and s4, s4, 1
    6940:	c4 fe ff f3 	bz s4, -40 <dec_page_ref+0x54>
    6944:	64 00 00 4f 	movehi s3, 4
    6948:	63 f0 4f 00 	or s3, s3, 5116
    694c:	78 00 00 88 	store_32 s3, (s24)
    6950:	83 10 00 a8 	load_32 s4, 4(s3)
    6954:	98 10 00 88 	store_32 s4, 4(s24)
    6958:	03 13 00 88 	store_32 s24, 4(s3)
    695c:	78 10 00 a8 	load_32 s3, 4(s24)
    6960:	03 03 00 88 	store_32 s24, (s3)
    6964:	41 00 00 88 	store_32 s2, (s1)
    6968:	00 00 00 e8 	membar
    696c:	61 f2 ff f9 	call -13948 <restore_interrupts>
    6970:	fe e3 01 a8 	load_32 ra, 120(sp)
    6974:	1e f3 01 a8 	load_32 s24, 124(sp)
    6978:	de 03 02 05 	add_i sp, sp, 128
    697c:	1f 00 00 f0 	ret
    6980:	00 00 00 4f 	movehi s0, 0
    6984:	20 54 01 0f 	move s1, 85
    6988:	3e 20 00 88 	store_32 s1, 8(sp)
    698c:	20 00 00 4f 	movehi s1, 0
    6990:	00 8c 1f 00 	or s0, s0, 2019
    6994:	1e 30 00 88 	store_32 s0, 12(sp)
    6998:	00 00 00 4f 	movehi s0, 0
    699c:	21 4c 1a 00 	or s1, s1, 1683
    69a0:	3e 10 00 88 	store_32 s1, 4(sp)
    69a4:	00 7c 15 00 	or s0, s0, 1375
    69a8:	1e 00 00 88 	store_32 s0, (sp)
    69ac:	01 f0 ff f9 	call -16380 <panic>

00000000000069b0 pa_to_page:
    69b0:	de 03 fe 05 	add_i sp, sp, -128
    69b4:	fe f3 01 88 	store_32 ra, 124(sp)
    69b8:	24 00 00 4f 	movehi s1, 4
    69bc:	21 00 49 00 	or s1, s1, 4672
    69c0:	21 00 00 a8 	load_32 s1, (s1)
    69c4:	21 00 60 c1 	cmpgt_u s1, s1, s0
    69c8:	41 00 00 f4 	bnz s1, 8 <pa_to_page+0x20>
    69cc:	08 00 00 f6 	b 32 <pa_to_page+0x3c>
    69d0:	00 30 00 0a 	shr s0, s0, 12
    69d4:	fe f3 01 a8 	load_32 ra, 124(sp)
    69d8:	20 00 d0 4f 	movehi s1, 425984
    69dc:	00 90 00 07 	mull_i s0, s0, 36
    69e0:	00 80 00 c0 	or s0, s0, s1
    69e4:	de 03 02 05 	add_i sp, sp, 128
    69e8:	1f 00 00 f0 	ret
    69ec:	00 00 00 4f 	movehi s0, 0
    69f0:	20 84 01 0f 	move s1, 97
    69f4:	3e 20 00 88 	store_32 s1, 8(sp)
    69f8:	20 00 00 4f 	movehi s1, 0
    69fc:	00 30 15 00 	or s0, s0, 1356
    6a00:	1e 30 00 88 	store_32 s0, 12(sp)
    6a04:	00 00 00 4f 	movehi s0, 0
    6a08:	21 4c 1a 00 	or s1, s1, 1683
    6a0c:	3e 10 00 88 	store_32 s1, 4(sp)
    6a10:	00 7c 15 00 	or s0, s0, 1375
    6a14:	1e 00 00 88 	store_32 s0, (sp)
    6a18:	e6 ef ff f9 	call -16488 <panic>

0000000000006a1c page_to_pa:
    6a1c:	20 00 30 4f 	movehi s1, 98304
    6a20:	00 80 50 c0 	add_i s0, s0, s1
    6a24:	3c e0 38 4f 	movehi s1, 116508
    6a28:	00 08 00 0a 	shr s0, s0, 2
    6a2c:	21 00 40 00 	or s1, s1, 4096
    6a30:	00 80 70 c0 	mull_i s0, s0, s1
    6a34:	1f 00 00 f0 	ret

0000000000006a38 allocate_contiguous_memory:
    6a38:	de 03 ff 05 	add_i sp, sp, -64
    6a3c:	1e f3 00 88 	store_32 s24, 60(sp)
    6a40:	3e e3 00 88 	store_32 s25, 56(sp)
    6a44:	5e d3 00 88 	store_32 s26, 52(sp)
    6a48:	fe c3 00 88 	store_32 ra, 48(sp)
    6a4c:	24 00 00 4f 	movehi s1, 4
    6a50:	20 ff 3f 05 	add_i s25, s0, 4095
    6a54:	21 00 49 00 	or s1, s1, 4672
    6a58:	41 03 00 a8 	load_32 s26, (s1)
    6a5c:	1d f2 ff f9 	call -14220 <disable_interrupts>
    6a60:	24 00 00 4f 	movehi s1, 4
    6a64:	a0 04 00 0f 	move s5, 1
    6a68:	00 03 00 0f 	move s24, 0
    6a6c:	21 10 50 00 	or s1, s1, 5124
    6a70:	41 00 00 a8 	load_32 s2, (s1)
    6a74:	e2 ff ff f5 	bnz s2, -4 <allocate_contiguous_memory+0x38>
    6a78:	41 00 00 aa 	load_sync s2, (s1)
    6a7c:	62 00 1c c1 	cmpne_i s3, s2, s24
    6a80:	83 00 00 f4 	bnz s3, 16 <allocate_contiguous_memory+0x58>
    6a84:	60 80 f2 c0 	move s3, s5
    6a88:	61 00 00 8a 	store_sync s3, (s1)  
    6a8c:	63 ff ff f3 	bz s3, -20 <allocate_contiguous_memory+0x40>
    6a90:	42 00 00 10 	cmpeq_i s2, s2, 0
    6a94:	42 04 00 01 	and s2, s2, 1
    6a98:	c2 fe ff f3 	bz s2, -40 <allocate_contiguous_memory+0x38>
    6a9c:	9a 30 00 0a 	shr s4, s26, 12
    6aa0:	40 00 d0 4f 	movehi s2, 425984
    6aa4:	79 30 00 0a 	shr s3, s25, 12
    6aa8:	c4 80 61 c0 	sub_i s6, s4, s3
    6aac:	82 80 00 00 	or s4, s2, 32
    6ab0:	02 00 00 f6 	b 8 <allocate_contiguous_memory+0x80>
    6ab4:	07 03 5c c0 	add_i s24, s7, s24
    6ab8:	f8 90 00 07 	mull_i s7, s24, 36
    6abc:	e7 00 52 c0 	add_i s7, s7, s4
    6ac0:	e7 00 00 a8 	load_32 s7, (s7)
    6ac4:	e7 04 00 14 	cmplt_i s7, s7, 1
    6ac8:	47 01 00 f4 	bnz s7, 40 <allocate_contiguous_memory+0xb8>
    6acc:	f8 00 13 c1 	cmpne_i s7, s24, s6
    6ad0:	47 00 00 f4 	bnz s7, 8 <allocate_contiguous_memory+0xa0>
    6ad4:	2e 00 00 f6 	b 184 <allocate_contiguous_memory+0x154>
    6ad8:	18 07 00 05 	add_i s24, s24, 1
    6adc:	f8 90 00 07 	mull_i s7, s24, 36
    6ae0:	e7 00 52 c0 	add_i s7, s7, s4
    6ae4:	e7 00 00 a8 	load_32 s7, (s7)
    6ae8:	e7 00 00 12 	cmpgt_i s7, s7, 0
    6aec:	07 ff ff f5 	bnz s7, -32 <allocate_contiguous_memory+0x94>
    6af0:	e0 80 f2 c0 	move s7, s5
    6af4:	07 81 81 c1 	cmplt_u s8, s7, s3
    6af8:	48 00 00 f4 	bnz s8, 8 <allocate_contiguous_memory+0xc8>
    6afc:	09 00 00 f6 	b 36 <allocate_contiguous_memory+0xe8>
    6b00:	07 01 5c c0 	add_i s8, s7, s24
    6b04:	e7 04 00 05 	add_i s7, s7, 1
    6b08:	08 91 00 07 	mull_i s8, s8, 36
    6b0c:	08 01 52 c0 	add_i s8, s8, s4
    6b10:	08 01 00 a8 	load_32 s8, (s8)
    6b14:	08 05 00 14 	cmplt_i s8, s8, 1
    6b18:	e8 fe ff f5 	bnz s8, -36 <allocate_contiguous_memory+0xbc>
    6b1c:	e6 ff ff f7 	b -104 <allocate_contiguous_memory+0x7c>
    6b20:	a3 02 00 f2 	bz s3, 84 <allocate_contiguous_memory+0x13c>
    6b24:	a0 00 00 0f 	move s5, 0
    6b28:	c0 04 00 0f 	move s6, 1
    6b2c:	e2 10 00 00 	or s7, s2, 4
    6b30:	00 81 f2 c0 	move s8, s5
    6b34:	28 01 5c c0 	add_i s9, s8, s24
    6b38:	08 05 00 05 	add_i s8, s8, 1
    6b3c:	29 91 00 07 	mull_i s9, s9, 36
    6b40:	49 01 52 c0 	add_i s10, s9, s4
    6b44:	69 81 53 c0 	add_i s11, s9, s7
    6b48:	29 01 51 c0 	add_i s9, s9, s2
    6b4c:	ca 00 00 88 	store_32 s6, (s10)
    6b50:	4b 01 00 a8 	load_32 s10, (s11)
    6b54:	89 01 00 a8 	load_32 s12, (s9)
    6b58:	4c 11 00 88 	store_32 s10, 4(s12)
    6b5c:	4b 01 00 a8 	load_32 s10, (s11)
    6b60:	8a 01 00 88 	store_32 s12, (s10)
    6b64:	48 81 81 c1 	cmplt_u s10, s8, s3
    6b68:	ab 00 00 88 	store_32 s5, (s11)
    6b6c:	a9 00 00 88 	store_32 s5, (s9)
    6b70:	2a fe ff f5 	bnz s10, -60 <allocate_contiguous_memory+0xfc>
    6b74:	40 00 00 0f 	move s2, 0
    6b78:	41 00 00 88 	store_32 s2, (s1)
    6b7c:	00 00 00 e8 	membar
    6b80:	dc f1 ff f9 	call -14480 <restore_interrupts>
    6b84:	18 30 00 0b 	shl s0, s24, 12
    6b88:	06 00 00 f6 	b 24 <allocate_contiguous_memory+0x168>
    6b8c:	40 00 00 0f 	move s2, 0
    6b90:	41 00 00 88 	store_32 s2, (s1)
    6b94:	00 00 00 e8 	membar
    6b98:	d6 f1 ff f9 	call -14504 <restore_interrupts>
    6b9c:	00 fc ff 0f 	move s0, -1
    6ba0:	fe c3 00 a8 	load_32 ra, 48(sp)
    6ba4:	5e d3 00 a8 	load_32 s26, 52(sp)
    6ba8:	3e e3 00 a8 	load_32 s25, 56(sp)
    6bac:	1e f3 00 a8 	load_32 s24, 60(sp)
    6bb0:	de 03 01 05 	add_i sp, sp, 64
    6bb4:	1f 00 00 f0 	ret

0000000000006bb8 init_area_map:
    6bb8:	42 04 00 05 	add_i s2, s2, 1
    6bbc:	21 00 c0 01 	and s1, s1, -4096
    6bc0:	20 00 00 88 	store_32 s1, (s0)
    6bc4:	42 00 c0 01 	and s2, s2, -4096
    6bc8:	22 fc ff 05 	add_i s1, s2, -1
    6bcc:	20 10 00 88 	store_32 s1, 4(s0)
    6bd0:	20 20 00 05 	add_i s1, s0, 8
    6bd4:	20 30 00 88 	store_32 s1, 12(s0)
    6bd8:	20 20 00 88 	store_32 s1, 8(s0)
    6bdc:	1f 00 00 f0 	ret

0000000000006be0 create_vm_area:
    6be0:	de 03 ff 05 	add_i sp, sp, -64
    6be4:	1e f3 00 88 	store_32 s24, 60(sp)
    6be8:	3e e3 00 88 	store_32 s25, 56(sp)
    6bec:	5e d3 00 88 	store_32 s26, 52(sp)
    6bf0:	7e c3 00 88 	store_32 s27, 48(sp)
    6bf4:	fe b3 00 88 	store_32 ra, 44(sp)
    6bf8:	42 fc 3f 05 	add_i s2, s2, 4095
    6bfc:	60 83 f0 c0 	move s27, s1
    6c00:	23 08 00 10 	cmpeq_i s1, s3, 2
    6c04:	42 03 c0 01 	and s26, s2, -4096
    6c08:	00 01 00 0f 	move s8, 0
    6c0c:	81 04 00 f4 	bnz s1, 144 <create_vm_area+0xbc>
    6c10:	23 04 00 10 	cmpeq_i s1, s3, 1
    6c14:	21 06 00 f4 	bnz s1, 196 <create_vm_area+0xf8>
    6c18:	e3 04 00 f4 	bnz s3, 156 <create_vm_area+0xd4>
    6c1c:	20 00 00 a8 	load_32 s1, (s0)
    6c20:	21 80 6d c1 	cmpgt_u s1, s1, s27
    6c24:	81 04 00 f4 	bnz s1, 144 <create_vm_area+0xd4>
    6c28:	3a fc ff 05 	add_i s1, s26, -1
    6c2c:	01 83 5d c0 	add_i s24, s1, s27
    6c30:	58 80 80 c1 	cmplt_u s2, s24, s1
    6c34:	20 10 00 a8 	load_32 s1, 4(s0)
    6c38:	e2 03 00 f4 	bnz s2, 124 <create_vm_area+0xd4>
    6c3c:	38 80 60 c1 	cmpgt_u s1, s24, s1
    6c40:	a1 03 00 f4 	bnz s1, 116 <create_vm_area+0xd4>
    6c44:	9e a0 00 88 	store_32 s4, 40(sp)
    6c48:	80 20 00 05 	add_i s4, s0, 8
    6c4c:	20 33 00 a8 	load_32 s25, 12(s0)
    6c50:	19 00 12 c1 	cmpne_i s0, s25, s4
    6c54:	40 00 00 f4 	bnz s0, 8 <create_vm_area+0x7c>
    6c58:	91 00 00 f6 	b 580 <create_vm_area+0x2bc>
    6c5c:	20 00 00 0f 	move s1, 0
    6c60:	00 80 f0 c0 	move s0, s1
    6c64:	a0 02 00 f4 	bnz s0, 84 <create_vm_area+0xd8>
    6c68:	19 20 00 a8 	load_32 s0, 8(s25)
    6c6c:	00 00 8c c1 	cmplt_u s0, s0, s24
    6c70:	40 00 00 f4 	bnz s0, 8 <create_vm_area+0x98>
    6c74:	ae 00 00 f6 	b 696 <create_vm_area+0x34c>
    6c78:	59 30 00 a8 	load_32 s2, 12(s25)
    6c7c:	39 13 00 a8 	load_32 s25, 4(s25)
    6c80:	02 80 6d c1 	cmpgt_u s0, s2, s27
    6c84:	79 00 12 c1 	cmpne_i s3, s25, s4
    6c88:	e3 fe ff f5 	bnz s3, -36 <create_vm_area+0x84>
    6c8c:	02 80 6d c1 	cmpgt_u s0, s2, s27
    6c90:	be 90 00 88 	store_32 s5, 36(sp)
    6c94:	20 01 00 f4 	bnz s0, 36 <create_vm_area+0xd8>
    6c98:	82 00 00 f6 	b 520 <create_vm_area+0x2c0>
    6c9c:	40 00 00 a8 	load_32 s2, (s0)
    6ca0:	7a 80 5d c0 	add_i s3, s26, s27
    6ca4:	20 10 00 a8 	load_32 s1, 4(s0)
    6ca8:	63 80 60 c1 	cmpgt_u s3, s3, s1
    6cac:	43 00 00 f4 	bnz s3, 8 <create_vm_area+0xd4>
    6cb0:	43 00 00 f6 	b 268 <create_vm_area+0x1dc>
    6cb4:	20 00 f4 c0 	move s1, s8
    6cb8:	00 80 f0 c0 	move s0, s1
    6cbc:	fe b3 00 a8 	load_32 ra, 44(sp)
    6cc0:	7e c3 00 a8 	load_32 s27, 48(sp)
    6cc4:	5e d3 00 a8 	load_32 s26, 52(sp)
    6cc8:	3e e3 00 a8 	load_32 s25, 56(sp)
    6ccc:	1e f3 00 a8 	load_32 s24, 60(sp)
    6cd0:	de 03 01 05 	add_i sp, sp, 64
    6cd4:	1f 00 00 f0 	ret
    6cd8:	9e a0 00 88 	store_32 s4, 40(sp)
    6cdc:	20 23 00 05 	add_i s25, s0, 8
    6ce0:	20 30 00 a8 	load_32 s1, 12(s0)
    6ce4:	81 80 0c c1 	cmpeq_i s4, s1, s25
    6ce8:	20 00 00 0f 	move s1, 0
    6cec:	00 83 f0 c0 	move s24, s1
    6cf0:	44 00 00 f4 	bnz s4, 8 <create_vm_area+0x118>
    6cf4:	19 03 00 a8 	load_32 s24, (s25)
    6cf8:	60 10 00 a8 	load_32 s3, 4(s0)
    6cfc:	db 00 6d c0 	sub_i s6, s27, s26
    6d00:	40 00 00 a8 	load_32 s2, (s0)
    6d04:	c6 00 81 c1 	cmplt_u s6, s6, s2
    6d08:	86 fd ff f5 	bnz s6, -80 <create_vm_area+0xd8>
    6d0c:	c3 80 8d c1 	cmplt_u s6, s3, s27
    6d10:	e0 80 f1 c0 	move s7, s3
    6d14:	46 00 00 f4 	bnz s6, 8 <create_vm_area+0x13c>
    6d18:	e0 80 fd c0 	move s7, s27
    6d1c:	c7 04 00 05 	add_i s6, s7, 1
    6d20:	be 90 00 88 	store_32 s5, 36(sp)
    6d24:	c6 00 c0 01 	and s6, s6, -4096
    6d28:	66 ff ff 05 	add_i s27, s6, -1
    6d2c:	04 0a 00 f4 	bnz s4, 320 <create_vm_area+0x28c>
    6d30:	78 11 00 f2 	bz s24, 556 <create_vm_area+0x37c>
    6d34:	98 30 00 a8 	load_32 s4, 12(s24)
    6d38:	84 80 9d c1 	cmple_u s4, s4, s27
    6d3c:	a4 01 00 f4 	bnz s4, 52 <create_vm_area+0x190>
    6d40:	60 00 fc c0 	move s3, s24
    6d44:	03 03 00 a8 	load_32 s24, (s3)
    6d48:	98 80 0c c1 	cmpeq_i s4, s24, s25
    6d4c:	44 10 00 f4 	bnz s4, 520 <create_vm_area+0x374>
    6d50:	58 00 00 f4 	bnz s24, 8 <create_vm_area+0x178>
    6d54:	80 00 00 f6 	b 512 <create_vm_area+0x374>
    6d58:	98 30 00 a8 	load_32 s4, 12(s24)
    6d5c:	84 80 9d c1 	cmple_u s4, s4, s27
    6d60:	44 00 00 f4 	bnz s4, 8 <create_vm_area+0x188>
    6d64:	f7 ff ff f7 	b -36 <create_vm_area+0x160>
    6d68:	63 20 00 a8 	load_32 s3, 8(s3)
    6d6c:	63 fc ff 05 	add_i s3, s3, -1
    6d70:	83 80 6d c1 	cmpgt_u s4, s3, s27
    6d74:	44 00 00 f4 	bnz s4, 8 <create_vm_area+0x19c>
    6d78:	60 83 f1 c0 	move s27, s3
    6d7c:	60 00 00 0f 	move s3, 0
    6d80:	98 30 00 a8 	load_32 s4, 12(s24)
    6d84:	db 04 00 05 	add_i s6, s27, 1
    6d88:	86 00 62 c0 	sub_i s4, s6, s4
    6d8c:	84 00 8d c1 	cmplt_u s4, s4, s26
    6d90:	44 00 00 f4 	bnz s4, 8 <create_vm_area+0x1b8>
    6d94:	47 00 00 f6 	b 284 <create_vm_area+0x2d0>
    6d98:	98 20 00 a8 	load_32 s4, 8(s24)
    6d9c:	f8 00 00 a8 	load_32 s7, (s24)
    6da0:	00 83 f1 c0 	move s24, s3
    6da4:	c7 80 0c c1 	cmpeq_i s6, s7, s25
    6da8:	46 00 00 f4 	bnz s6, 8 <create_vm_area+0x1d0>
    6dac:	00 83 f3 c0 	move s24, s7
    6db0:	64 ff ff 05 	add_i s27, s4, -1
    6db4:	78 fe ff f5 	bnz s24, -52 <create_vm_area+0x1a0>
    6db8:	6c 00 00 f6 	b 432 <create_vm_area+0x388>
    6dbc:	9e a0 00 88 	store_32 s4, 40(sp)
    6dc0:	82 80 6d c1 	cmpgt_u s4, s2, s27
    6dc4:	60 00 f1 c0 	move s3, s2
    6dc8:	44 00 00 f4 	bnz s4, 8 <create_vm_area+0x1f0>
    6dcc:	60 80 fd c0 	move s3, s27
    6dd0:	00 33 00 a8 	load_32 s24, 12(s0)
    6dd4:	20 23 00 05 	add_i s25, s0, 8
    6dd8:	63 03 c0 01 	and s27, s3, -4096
    6ddc:	18 80 0c c1 	cmpeq_i s0, s24, s25
    6de0:	60 10 00 f4 	bnz s0, 524 <create_vm_area+0x40c>
    6de4:	78 0f 00 f2 	bz s24, 492 <create_vm_area+0x3f0>
    6de8:	18 20 00 a8 	load_32 s0, 8(s24)
    6dec:	00 80 7d c1 	cmpge_u s0, s0, s27
    6df0:	a0 01 00 f4 	bnz s0, 52 <create_vm_area+0x244>
    6df4:	00 00 fc c0 	move s0, s24
    6df8:	00 13 00 a8 	load_32 s24, 4(s0)
    6dfc:	58 80 0c c1 	cmpeq_i s2, s24, s25
    6e00:	42 0e 00 f4 	bnz s2, 456 <create_vm_area+0x3e8>
    6e04:	58 00 00 f4 	bnz s24, 8 <create_vm_area+0x22c>
    6e08:	70 00 00 f6 	b 448 <create_vm_area+0x3e8>
    6e0c:	58 20 00 a8 	load_32 s2, 8(s24)
    6e10:	42 80 7d c1 	cmpge_u s2, s2, s27
    6e14:	42 00 00 f4 	bnz s2, 8 <create_vm_area+0x23c>
    6e18:	f7 ff ff f7 	b -36 <create_vm_area+0x214>
    6e1c:	00 30 00 a8 	load_32 s0, 12(s0)
    6e20:	40 04 00 05 	add_i s2, s0, 1
    6e24:	02 80 8d c1 	cmplt_u s0, s2, s27
    6e28:	40 00 00 f4 	bnz s0, 8 <create_vm_area+0x250>
    6e2c:	60 03 f1 c0 	move s27, s2
    6e30:	00 00 00 0f 	move s0, 0
    6e34:	58 20 00 a8 	load_32 s2, 8(s24)
    6e38:	42 80 6d c0 	sub_i s2, s2, s27
    6e3c:	42 00 8d c1 	cmplt_u s2, s2, s26
    6e40:	42 00 00 f4 	bnz s2, 8 <create_vm_area+0x268>
    6e44:	2a 00 00 f6 	b 168 <create_vm_area+0x30c>
    6e48:	58 30 00 a8 	load_32 s2, 12(s24)
    6e4c:	78 10 00 a8 	load_32 s3, 4(s24)
    6e50:	00 03 f0 c0 	move s24, s0
    6e54:	83 80 0c c1 	cmpeq_i s4, s3, s25
    6e58:	44 00 00 f4 	bnz s4, 8 <create_vm_area+0x280>
    6e5c:	00 83 f1 c0 	move s24, s3
    6e60:	62 07 00 05 	add_i s27, s2, 1
    6e64:	98 fe ff f5 	bnz s24, -48 <create_vm_area+0x254>
    6e68:	5d 00 00 f6 	b 372 <create_vm_area+0x3fc>
    6e6c:	00 04 00 0f 	move s0, 1
    6e70:	00 00 6d c0 	sub_i s0, s0, s26
    6e74:	40 03 f4 c0 	move s26, s8
    6e78:	00 83 5d c0 	add_i s24, s0, s27
    6e7c:	04 00 00 4f 	movehi s0, 4
    6e80:	00 a0 41 00 	or s0, s0, 4200
    6e84:	26 f3 ff f9 	call -13160 <slab_alloc>
    6e88:	40 00 fd c0 	move s2, s26
    6e8c:	40 03 f0 c0 	move s26, s0
    6e90:	1a 23 00 88 	store_32 s24, 8(s26)
    6e94:	7a 33 00 88 	store_32 s27, 12(s26)
    6e98:	60 00 00 f6 	b 384 <create_vm_area+0x438>
    6e9c:	be 90 00 88 	store_32 s5, 36(sp)
    6ea0:	04 00 00 4f 	movehi s0, 4
    6ea4:	40 03 f4 c0 	move s26, s8
    6ea8:	20 03 f2 c0 	move s25, s4
    6eac:	23 00 00 f6 	b 140 <create_vm_area+0x358>
    6eb0:	00 04 00 0f 	move s0, 1
    6eb4:	00 00 6d c0 	sub_i s0, s0, s26
    6eb8:	40 03 f4 c0 	move s26, s8
    6ebc:	20 83 5d c0 	add_i s25, s0, s27
    6ec0:	04 00 00 4f 	movehi s0, 4
    6ec4:	00 a0 41 00 	or s0, s0, 4200
    6ec8:	15 f3 ff f9 	call -13228 <slab_alloc>
    6ecc:	40 00 fd c0 	move s2, s26
    6ed0:	40 03 f0 c0 	move s26, s0
    6ed4:	78 10 00 05 	add_i s3, s24, 4
    6ed8:	3a 23 00 88 	store_32 s25, 8(s26)
    6edc:	7a 33 00 88 	store_32 s27, 12(s26)
    6ee0:	1a 03 00 88 	store_32 s24, (s26)
    6ee4:	38 10 00 a8 	load_32 s1, 4(s24)
    6ee8:	35 00 00 f6 	b 212 <create_vm_area+0x3dc>
    6eec:	04 00 00 4f 	movehi s0, 4
    6ef0:	be 90 00 88 	store_32 s5, 36(sp)
    6ef4:	20 03 f4 c0 	move s25, s8
    6ef8:	00 a0 41 00 	or s0, s0, 4200
    6efc:	08 f3 ff f9 	call -13280 <slab_alloc>
    6f00:	40 80 fc c0 	move s2, s25
    6f04:	3a 80 5d c0 	add_i s1, s26, s27
    6f08:	40 03 f0 c0 	move s26, s0
    6f0c:	01 fc ff 05 	add_i s0, s1, -1
    6f10:	7a 23 00 88 	store_32 s27, 8(s26)
    6f14:	1a 30 00 88 	store_32 s0, 12(s26)
    6f18:	1a 10 00 05 	add_i s0, s26, 4
    6f1c:	38 00 00 a8 	load_32 s1, (s24)
    6f20:	3a 00 00 88 	store_32 s1, (s26)
    6f24:	1a 13 00 88 	store_32 s24, 4(s26)
    6f28:	40 00 00 f6 	b 256 <create_vm_area+0x448>
    6f2c:	04 00 00 4f 	movehi s0, 4
    6f30:	be 90 00 88 	store_32 s5, 36(sp)
    6f34:	40 03 f4 c0 	move s26, s8
    6f38:	00 a0 41 00 	or s0, s0, 4200
    6f3c:	f8 f2 ff f9 	call -13344 <slab_alloc>
    6f40:	40 00 fd c0 	move s2, s26
    6f44:	40 03 f0 c0 	move s26, s0
    6f48:	7a 23 00 88 	store_32 s27, 8(s26)
    6f4c:	1a 33 00 88 	store_32 s24, 12(s26)
    6f50:	32 00 00 f6 	b 200 <create_vm_area+0x438>
    6f54:	63 20 00 a8 	load_32 s3, 8(s3)
    6f58:	63 fc ff 05 	add_i s3, s3, -1
    6f5c:	83 80 6d c1 	cmpgt_u s4, s3, s27
    6f60:	44 00 00 f4 	bnz s4, 8 <create_vm_area+0x388>
    6f64:	60 83 f1 c0 	move s27, s3
    6f68:	60 04 00 0f 	move s3, 1
    6f6c:	43 00 61 c0 	sub_i s2, s3, s2
    6f70:	42 80 5d c0 	add_i s2, s2, s27
    6f74:	42 00 8d c1 	cmplt_u s2, s2, s26
    6f78:	02 ea ff f5 	bnz s2, -704 <create_vm_area+0xd8>
    6f7c:	23 00 6d c0 	sub_i s1, s3, s26
    6f80:	00 33 00 05 	add_i s24, s0, 12
    6f84:	01 80 5d c0 	add_i s0, s1, s27
    6f88:	1e 80 00 88 	store_32 s0, 32(sp)
    6f8c:	04 00 00 4f 	movehi s0, 4
    6f90:	40 03 f4 c0 	move s26, s8
    6f94:	00 a0 41 00 	or s0, s0, 4200
    6f98:	e1 f2 ff f9 	call -13436 <slab_alloc>
    6f9c:	60 00 fc c0 	move s3, s24
    6fa0:	40 00 fd c0 	move s2, s26
    6fa4:	40 03 f0 c0 	move s26, s0
    6fa8:	1e 80 00 a8 	load_32 s0, 32(sp)
    6fac:	1a 20 00 88 	store_32 s0, 8(s26)
    6fb0:	7a 33 00 88 	store_32 s27, 12(s26)
    6fb4:	3a 03 00 88 	store_32 s25, (s26)
    6fb8:	23 00 00 a8 	load_32 s1, (s3)
    6fbc:	1a 10 00 05 	add_i s0, s26, 4
    6fc0:	3a 10 00 88 	store_32 s1, 4(s26)
    6fc4:	1a 00 00 f6 	b 104 <create_vm_area+0x44c>
    6fc8:	00 30 00 a8 	load_32 s0, 12(s0)
    6fcc:	40 04 00 05 	add_i s2, s0, 1
    6fd0:	02 80 8d c1 	cmplt_u s0, s2, s27
    6fd4:	40 00 00 f4 	bnz s0, 8 <create_vm_area+0x3fc>
    6fd8:	60 03 f1 c0 	move s27, s2
    6fdc:	01 04 00 05 	add_i s0, s1, 1
    6fe0:	00 80 6d c0 	sub_i s0, s0, s27
    6fe4:	00 00 8d c1 	cmplt_u s0, s0, s26
    6fe8:	60 e6 ff f5 	bnz s0, -820 <create_vm_area+0xd4>
    6fec:	04 00 00 4f 	movehi s0, 4
    6ff0:	be 90 00 88 	store_32 s5, 36(sp)
    6ff4:	00 03 f4 c0 	move s24, s8
    6ff8:	00 a0 41 00 	or s0, s0, 4200
    6ffc:	c8 f2 ff f9 	call -13536 <slab_alloc>
    7000:	40 00 fc c0 	move s2, s24
    7004:	3a 80 5d c0 	add_i s1, s26, s27
    7008:	40 03 f0 c0 	move s26, s0
    700c:	01 fc ff 05 	add_i s0, s1, -1
    7010:	7a 23 00 88 	store_32 s27, 8(s26)
    7014:	1a 30 00 88 	store_32 s0, 12(s26)
    7018:	39 00 00 a8 	load_32 s1, (s25)
    701c:	1a 10 00 05 	add_i s0, s26, 4
    7020:	3a 00 00 88 	store_32 s1, (s26)
    7024:	3a 13 00 88 	store_32 s25, 4(s26)
    7028:	61 10 00 05 	add_i s3, s1, 4
    702c:	43 03 00 88 	store_32 s26, (s3)
    7030:	00 00 00 a8 	load_32 s0, (s0)
    7034:	40 03 00 88 	store_32 s26, (s0)
    7038:	20 00 f1 c0 	move s1, s2
    703c:	fa e3 ff f3 	bz s26, -900 <create_vm_area+0xd8>
    7040:	3e a0 00 a8 	load_32 s1, 40(sp)
    7044:	1a 80 00 05 	add_i s0, s26, 32
    7048:	40 80 00 0f 	move s2, 32
    704c:	90 ee ff f9 	call -17856 <strlcpy>
    7050:	1e 90 00 a8 	load_32 s0, 36(sp)
    7054:	1a 70 00 88 	store_32 s0, 28(s26)
    7058:	00 00 00 0f 	move s0, 0
    705c:	1a 40 00 88 	store_32 s0, 16(s26)
    7060:	1a 50 00 88 	store_32 s0, 20(s26)
    7064:	1a 60 00 88 	store_32 s0, 24(s26)
    7068:	20 00 fd c0 	move s1, s26
    706c:	13 ff ff f7 	b -948 <create_vm_area+0xd8>

0000000000007070 destroy_vm_area:
    7070:	de 03 ff 05 	add_i sp, sp, -64
    7074:	fe f3 00 88 	store_32 ra, 60(sp)
    7078:	20 00 f0 c0 	move s1, s0
    707c:	01 10 00 a8 	load_32 s0, 4(s1)
    7080:	41 00 00 a8 	load_32 s2, (s1)
    7084:	02 10 00 88 	store_32 s0, 4(s2)
    7088:	01 10 00 a8 	load_32 s0, 4(s1)
    708c:	40 00 00 88 	store_32 s2, (s0)
    7090:	00 00 00 0f 	move s0, 0
    7094:	01 10 00 88 	store_32 s0, 4(s1)
    7098:	01 00 00 88 	store_32 s0, (s1)
    709c:	04 00 00 4f 	movehi s0, 4
    70a0:	00 a0 41 00 	or s0, s0, 4200
    70a4:	d9 f2 ff f9 	call -13468 <slab_free>
    70a8:	fe f3 00 a8 	load_32 ra, 60(sp)
    70ac:	de 03 01 05 	add_i sp, sp, 64
    70b0:	1f 00 00 f0 	ret

00000000000070b4 first_area:
    70b4:	20 00 f0 c0 	move s1, s0
    70b8:	01 30 00 a8 	load_32 s0, 12(s1)
    70bc:	21 20 00 05 	add_i s1, s1, 8
    70c0:	20 80 00 c1 	cmpeq_i s1, s0, s1
    70c4:	41 00 00 f4 	bnz s1, 8 <first_area+0x18>
    70c8:	02 00 00 f6 	b 8 <first_area+0x1c>
    70cc:	00 00 00 0f 	move s0, 0
    70d0:	1f 00 00 f0 	ret

00000000000070d4 lookup_area:
    70d4:	40 30 00 a8 	load_32 s2, 12(s0)
    70d8:	60 20 00 05 	add_i s3, s0, 8
    70dc:	00 00 00 0f 	move s0, 0
    70e0:	82 80 01 c1 	cmpeq_i s4, s2, s3
    70e4:	44 01 00 f4 	bnz s4, 40 <lookup_area+0x38>
    70e8:	82 20 00 a8 	load_32 s4, 8(s2)
    70ec:	84 80 60 c1 	cmpgt_u s4, s4, s1
    70f0:	84 00 00 f4 	bnz s4, 16 <lookup_area+0x2c>
    70f4:	82 30 00 a8 	load_32 s4, 12(s2)
    70f8:	84 80 70 c1 	cmpge_u s4, s4, s1
    70fc:	a4 00 00 f4 	bnz s4, 20 <lookup_area+0x3c>
    7100:	42 10 00 a8 	load_32 s2, 4(s2)
    7104:	82 80 11 c1 	cmpne_i s4, s2, s3
    7108:	04 ff ff f5 	bnz s4, -32 <lookup_area+0x14>
    710c:	1f 00 00 f0 	ret
    7110:	00 00 f1 c0 	move s0, s2
    7114:	1f 00 00 f0 	ret

0000000000007118 dump_area_map:
    7118:	de 03 fe 05 	add_i sp, sp, -128
    711c:	1e f3 01 88 	store_32 s24, 124(sp)
    7120:	3e e3 01 88 	store_32 s25, 120(sp)
    7124:	5e d3 01 88 	store_32 s26, 116(sp)
    7128:	7e c3 01 88 	store_32 s27, 112(sp)
    712c:	fe b3 01 88 	store_32 ra, 108(sp)
    7130:	00 03 f0 c0 	move s24, s0
    7134:	00 00 00 4f 	movehi s0, 0
    7138:	00 74 1a 00 	or s0, s0, 1693
    713c:	1e 00 00 88 	store_32 s0, (sp)
    7140:	4e ec ff f9 	call -20168 <kprintf>
    7144:	38 33 00 a8 	load_32 s25, 12(s24)
    7148:	18 23 00 05 	add_i s24, s24, 8
    714c:	19 00 0c c1 	cmpeq_i s0, s25, s24
    7150:	00 05 00 f4 	bnz s0, 160 <dump_area_map+0xd8>
    7154:	00 c0 01 0f 	move s0, 112
    7158:	1e a0 01 88 	store_32 s0, 104(sp)
    715c:	00 00 00 4f 	movehi s0, 0
    7160:	60 b7 00 0f 	move s27, 45
    7164:	20 dc 01 0f 	move s1, 119
    7168:	3e 90 01 88 	store_32 s1, 100(sp)
    716c:	40 0b 0a 00 	or s26, s0, 642
    7170:	20 e0 01 0f 	move s1, 120
    7174:	3e 80 01 88 	store_32 s1, 96(sp)
    7178:	19 20 00 a8 	load_32 s0, 8(s25)
    717c:	59 30 00 a8 	load_32 s2, 12(s25)
    7180:	99 70 00 a8 	load_32 s4, 28(s25)
    7184:	24 04 00 01 	and s1, s4, 1
    7188:	61 00 00 10 	cmpeq_i s3, s1, 0
    718c:	20 80 fd c0 	move s1, s27
    7190:	43 00 00 f4 	bnz s3, 8 <dump_area_map+0x80>
    7194:	3e a0 01 a8 	load_32 s1, 104(sp)
    7198:	64 08 00 01 	and s3, s4, 2
    719c:	a3 00 00 10 	cmpeq_i s5, s3, 0
    71a0:	60 80 fd c0 	move s3, s27
    71a4:	45 00 00 f4 	bnz s5, 8 <dump_area_map+0x94>
    71a8:	7e 90 01 a8 	load_32 s3, 100(sp)
    71ac:	84 10 00 01 	and s4, s4, 4
    71b0:	b9 80 00 05 	add_i s5, s25, 32
    71b4:	c4 00 00 10 	cmpeq_i s6, s4, 0
    71b8:	80 80 fd c0 	move s4, s27
    71bc:	46 00 00 f4 	bnz s6, 8 <dump_area_map+0xac>
    71c0:	9e 80 01 a8 	load_32 s4, 96(sp)
    71c4:	5e 30 00 88 	store_32 s2, 12(sp)
    71c8:	1e 20 00 88 	store_32 s0, 8(sp)
    71cc:	be 10 00 88 	store_32 s5, 4(sp)
    71d0:	5e 03 00 88 	store_32 s26, (sp)
    71d4:	9e 60 00 88 	store_32 s4, 24(sp)
    71d8:	7e 50 00 88 	store_32 s3, 20(sp)
    71dc:	3e 40 00 88 	store_32 s1, 16(sp)
    71e0:	26 ec ff f9 	call -20328 <kprintf>
    71e4:	39 13 00 a8 	load_32 s25, 4(s25)
    71e8:	19 00 1c c1 	cmpne_i s0, s25, s24
    71ec:	60 fc ff f5 	bnz s0, -116 <dump_area_map+0x60>
    71f0:	fe b3 01 a8 	load_32 ra, 108(sp)
    71f4:	7e c3 01 a8 	load_32 s27, 112(sp)
    71f8:	5e d3 01 a8 	load_32 s26, 116(sp)
    71fc:	3e e3 01 a8 	load_32 s25, 120(sp)
    7200:	1e f3 01 a8 	load_32 s24, 124(sp)
    7204:	de 03 02 05 	add_i sp, sp, 128
    7208:	1f 00 00 f0 	ret

000000000000720c get_kernel_address_space:
    720c:	04 00 00 4f 	movehi s0, 4
    7210:	00 20 50 00 	or s0, s0, 5128
    7214:	1f 00 00 f0 	ret

0000000000007218 vm_address_space_init:
    7218:	de 03 ff 05 	add_i sp, sp, -64
    721c:	1e f3 00 88 	store_32 s24, 60(sp)
    7220:	3e e3 00 88 	store_32 s25, 56(sp)
    7224:	5e d3 00 88 	store_32 s26, 52(sp)
    7228:	7e c3 00 88 	store_32 s27, 48(sp)
    722c:	fe b3 00 88 	store_32 ra, 44(sp)
    7230:	24 00 00 4f 	movehi s1, 4
    7234:	01 23 50 00 	or s24, s1, 5128
    7238:	18 b0 00 88 	store_32 s0, 44(s24)
    723c:	00 00 fc c0 	move s0, s24
    7240:	32 ee ff f9 	call -18232 <init_rwlock>
    7244:	18 73 00 05 	add_i s24, s24, 28
    7248:	40 03 c0 4f 	movehi s26, 393216
    724c:	40 fc ff 0f 	move s2, -1
    7250:	00 00 fc c0 	move s0, s24
    7254:	1e a3 00 88 	store_32 s24, 40(sp)
    7258:	20 00 fd c0 	move s1, s26
    725c:	57 fe ff f9 	call -1700 <init_area_map>
    7260:	04 00 00 4f 	movehi s0, 4
    7264:	20 00 40 4f 	movehi s1, 131072
    7268:	20 03 00 0f 	move s25, 0
    726c:	00 d0 55 00 	or s0, s0, 5492
    7270:	a0 1c 00 0f 	move s5, 7
    7274:	00 fc 3f 05 	add_i s0, s0, 4095
    7278:	00 00 c0 01 	and s0, s0, -4096
    727c:	40 80 50 c0 	add_i s2, s0, s1
    7280:	00 00 00 4f 	movehi s0, 0
    7284:	80 08 1c 00 	or s4, s0, 1794
    7288:	00 00 fc c0 	move s0, s24
    728c:	20 00 fd c0 	move s1, s26
    7290:	60 80 fc c0 	move s3, s25
    7294:	40 83 fc c0 	move s26, s25
    7298:	52 fe ff f9 	call -1720 <create_vm_area>
    729c:	04 00 00 4f 	movehi s0, 4
    72a0:	60 0f 00 0f 	move s27, 3
    72a4:	20 00 c1 4f 	movehi s1, 395264
    72a8:	00 00 49 00 	or s0, s0, 4672
    72ac:	40 00 00 a8 	load_32 s2, (s0)
    72b0:	00 00 00 4f 	movehi s0, 0
    72b4:	80 48 22 00 	or s4, s0, 2194
    72b8:	00 00 fc c0 	move s0, s24
    72bc:	60 00 fd c0 	move s3, s26
    72c0:	a0 80 fd c0 	move s5, s27
    72c4:	47 fe ff f9 	call -1764 <create_vm_area>
    72c8:	00 00 00 4f 	movehi s0, 0
    72cc:	20 00 d0 4f 	movehi s1, 425984
    72d0:	40 00 01 4f 	movehi s2, 2048
    72d4:	80 c8 0e 00 	or s4, s0, 946
    72d8:	00 00 fc c0 	move s0, s24
    72dc:	60 00 fd c0 	move s3, s26
    72e0:	a0 80 fd c0 	move s5, s27
    72e4:	3f fe ff f9 	call -1796 <create_vm_area>
    72e8:	00 00 00 4f 	movehi s0, 0
    72ec:	38 fc ff 4f 	movehi s1, 524280
    72f0:	48 00 00 4f 	movehi s2, 8
    72f4:	80 60 07 00 	or s4, s0, 472
    72f8:	00 00 fc c0 	move s0, s24
    72fc:	60 00 fd c0 	move s3, s26
    7300:	a0 80 fd c0 	move s5, s27
    7304:	37 fe ff f9 	call -1828 <create_vm_area>
    7308:	00 00 00 4f 	movehi s0, 0
    730c:	02 03 00 4f 	movehi s24, 2
    7310:	30 fc ff 4f 	movehi s1, 524272
    7314:	80 50 1b 00 	or s4, s0, 1748
    7318:	9e 80 00 88 	store_32 s4, 32(sp)
    731c:	3e a3 00 a8 	load_32 s25, 40(sp)
    7320:	00 80 fc c0 	move s0, s25
    7324:	40 00 fc c0 	move s2, s24
    7328:	60 00 fd c0 	move s3, s26
    732c:	7e 73 00 88 	store_32 s27, 28(sp)
    7330:	a0 80 fd c0 	move s5, s27
    7334:	2b fe ff f9 	call -1876 <create_vm_area>
    7338:	00 80 fc c0 	move s0, s25
    733c:	40 00 fc c0 	move s2, s24
    7340:	20 03 fd c0 	move s25, s26
    7344:	3e 93 00 88 	store_32 s25, 36(sp)
    7348:	32 fc ff 4f 	movehi s1, 524274
    734c:	60 80 fc c0 	move s3, s25
    7350:	5e 83 00 a8 	load_32 s26, 32(sp)
    7354:	80 00 fd c0 	move s4, s26
    7358:	a0 80 fd c0 	move s5, s27
    735c:	21 fe ff f9 	call -1916 <create_vm_area>
    7360:	7e a3 00 a8 	load_32 s27, 40(sp)
    7364:	34 fc ff 4f 	movehi s1, 524276
    7368:	00 80 fd c0 	move s0, s27
    736c:	40 00 fc c0 	move s2, s24
    7370:	60 80 fc c0 	move s3, s25
    7374:	80 00 fd c0 	move s4, s26
    7378:	3e 73 00 a8 	load_32 s25, 28(sp)
    737c:	a0 80 fc c0 	move s5, s25
    7380:	18 fe ff f9 	call -1952 <create_vm_area>
    7384:	00 80 fd c0 	move s0, s27
    7388:	40 00 fc c0 	move s2, s24
    738c:	7e 90 00 a8 	load_32 s3, 36(sp)
    7390:	80 00 fd c0 	move s4, s26
    7394:	36 fc ff 4f 	movehi s1, 524278
    7398:	a0 80 fc c0 	move s5, s25
    739c:	11 fe ff f9 	call -1980 <create_vm_area>
    73a0:	fe b3 00 a8 	load_32 ra, 44(sp)
    73a4:	7e c3 00 a8 	load_32 s27, 48(sp)
    73a8:	5e d3 00 a8 	load_32 s26, 52(sp)
    73ac:	3e e3 00 a8 	load_32 s25, 56(sp)
    73b0:	1e f3 00 a8 	load_32 s24, 60(sp)
    73b4:	de 03 01 05 	add_i sp, sp, 64
    73b8:	1f 00 00 f0 	ret

00000000000073bc create_address_space:
    73bc:	de 03 ff 05 	add_i sp, sp, -64
    73c0:	1e f3 00 88 	store_32 s24, 60(sp)
    73c4:	fe e3 00 88 	store_32 ra, 56(sp)
    73c8:	04 00 00 4f 	movehi s0, 4
    73cc:	00 00 42 00 	or s0, s0, 4224
    73d0:	d3 f1 ff f9 	call -14516 <slab_alloc>
    73d4:	00 03 f0 c0 	move s24, s0
    73d8:	3f fc bf 4f 	movehi s1, 393215
    73dc:	18 70 00 05 	add_i s0, s24, 28
    73e0:	41 fc 7f 00 	or s2, s1, 8191
    73e4:	20 00 40 0f 	move s1, 4096
    73e8:	f4 fd ff f9 	call -2096 <init_area_map>
    73ec:	69 fb ff f9 	call -4700 <create_translation_map>
    73f0:	18 b0 00 88 	store_32 s0, 44(s24)
    73f4:	00 00 fc c0 	move s0, s24
    73f8:	c4 ed ff f9 	call -18672 <init_rwlock>
    73fc:	00 00 fc c0 	move s0, s24
    7400:	fe e3 00 a8 	load_32 ra, 56(sp)
    7404:	1e f3 00 a8 	load_32 s24, 60(sp)
    7408:	de 03 01 05 	add_i sp, sp, 64
    740c:	1f 00 00 f0 	ret

0000000000007410 destroy_address_space:
    7410:	de 03 ff 05 	add_i sp, sp, -64
    7414:	1e f3 00 88 	store_32 s24, 60(sp)
    7418:	3e e3 00 88 	store_32 s25, 56(sp)
    741c:	5e d3 00 88 	store_32 s26, 52(sp)
    7420:	fe c3 00 88 	store_32 ra, 48(sp)
    7424:	00 03 f0 c0 	move s24, s0
    7428:	38 73 00 05 	add_i s25, s24, 28
    742c:	00 80 fc c0 	move s0, s25
    7430:	21 ff ff f9 	call -892 <first_area>
    7434:	40 03 f0 c0 	move s26, s0
    7438:	5a 01 00 f2 	bz s26, 40 <destroy_address_space+0x50>
    743c:	1a 40 00 a8 	load_32 s0, 16(s26)
    7440:	40 00 00 f2 	bz s0, 8 <destroy_address_space+0x38>
    7444:	02 03 00 f8 	call 3080 <dec_cache_ref>
    7448:	00 00 fd c0 	move s0, s26
    744c:	09 ff ff f9 	call -988 <destroy_vm_area>
    7450:	00 80 fc c0 	move s0, s25
    7454:	18 ff ff f9 	call -928 <first_area>
    7458:	40 03 f0 c0 	move s26, s0
    745c:	1a ff ff f5 	bnz s26, -32 <destroy_address_space+0x2c>
    7460:	18 b0 00 a8 	load_32 s0, 44(s24)
    7464:	8e fb ff f9 	call -4552 <destroy_translation_map>
    7468:	fe c3 00 a8 	load_32 ra, 48(sp)
    746c:	5e d3 00 a8 	load_32 s26, 52(sp)
    7470:	3e e3 00 a8 	load_32 s25, 56(sp)
    7474:	1e f3 00 a8 	load_32 s24, 60(sp)
    7478:	de 03 01 05 	add_i sp, sp, 64
    747c:	1f 00 00 f0 	ret

0000000000007480 create_area:
    7480:	de 03 fe 05 	add_i sp, sp, -128
    7484:	1e f3 01 88 	store_32 s24, 124(sp)
    7488:	3e e3 01 88 	store_32 s25, 120(sp)
    748c:	5e d3 01 88 	store_32 s26, 116(sp)
    7490:	7e c3 01 88 	store_32 s27, 112(sp)
    7494:	fe b3 01 88 	store_32 ra, 108(sp)
    7498:	fe 70 01 88 	store_32 s7, 92(sp)
    749c:	40 03 f3 c0 	move s26, s6
    74a0:	be a0 01 88 	store_32 s5, 104(sp)
    74a4:	9e 90 01 88 	store_32 s4, 100(sp)
    74a8:	7e 80 01 88 	store_32 s3, 96(sp)
    74ac:	60 03 f1 c0 	move s27, s2
    74b0:	20 83 f0 c0 	move s25, s1
    74b4:	00 03 f0 c0 	move s24, s0
    74b8:	5a 00 00 f4 	bnz s26, 8 <create_area+0x40>
    74bc:	04 00 00 f6 	b 16 <create_area+0x4c>
    74c0:	00 00 fd c0 	move s0, s26
    74c4:	a8 02 00 f8 	call 2720 <inc_cache_ref>
    74c8:	04 00 00 f6 	b 16 <create_area+0x58>
    74cc:	00 00 00 0f 	move s0, 0
    74d0:	8e 02 00 f8 	call 2616 <create_vm_cache>
    74d4:	40 03 f0 c0 	move s26, s0
    74d8:	00 00 fc c0 	move s0, s24
    74dc:	30 ee ff f9 	call -18240 <rwlock_lock_write>
    74e0:	20 80 fc c0 	move s1, s25
    74e4:	40 80 fd c0 	move s2, s27
    74e8:	7e 80 01 a8 	load_32 s3, 96(sp)
    74ec:	9e 90 01 a8 	load_32 s4, 100(sp)
    74f0:	18 70 00 05 	add_i s0, s24, 28
    74f4:	7e 93 01 88 	store_32 s27, 100(sp)
    74f8:	7e a3 01 a8 	load_32 s27, 104(sp)
    74fc:	a0 80 fd c0 	move s5, s27
    7500:	b8 fd ff f9 	call -2336 <create_vm_area>
    7504:	20 03 f0 c0 	move s25, s0
    7508:	59 00 00 f4 	bnz s25, 8 <create_area+0x90>
    750c:	19 00 00 f6 	b 100 <create_area+0xf0>
    7510:	59 43 00 88 	store_32 s26, 16(s25)
    7514:	1e 70 01 a8 	load_32 s0, 92(sp)
    7518:	19 50 00 88 	store_32 s0, 20(s25)
    751c:	1b 04 00 01 	and s0, s27, 1
    7520:	3e 90 01 a8 	load_32 s1, 100(sp)
    7524:	39 60 00 88 	store_32 s1, 24(s25)
    7528:	c0 02 00 f2 	bz s0, 88 <create_area+0x100>
    752c:	59 23 00 a8 	load_32 s26, 8(s25)
    7530:	19 30 00 a8 	load_32 s0, 12(s25)
    7534:	1a 00 70 c1 	cmpge_u s0, s26, s0
    7538:	40 02 00 f4 	bnz s0, 72 <create_area+0x100>
    753c:	60 07 00 0f 	move s27, 1
    7540:	00 00 fc c0 	move s0, s24
    7544:	20 80 fc c0 	move s1, s25
    7548:	40 00 fd c0 	move s2, s26
    754c:	60 80 fd c0 	move s3, s27
    7550:	1a 00 00 f8 	call 104 <soft_fault>
    7554:	40 00 00 f4 	bnz s0, 8 <create_area+0xdc>
    7558:	14 00 00 f6 	b 80 <create_area+0x128>
    755c:	19 30 00 a8 	load_32 s0, 12(s25)
    7560:	5a 03 40 05 	add_i s26, s26, 4096
    7564:	1a 00 70 c1 	cmpge_u s0, s26, s0
    7568:	c0 00 00 f4 	bnz s0, 24 <create_area+0x100>
    756c:	f5 ff ff f7 	b -44 <create_area+0xc0>
    7570:	00 00 00 4f 	movehi s0, 0
    7574:	00 34 18 00 	or s0, s0, 1549
    7578:	1e 00 00 88 	store_32 s0, (sp)
    757c:	3f eb ff f9 	call -21252 <kprintf>
    7580:	00 00 fc c0 	move s0, s24
    7584:	57 ee ff f9 	call -18084 <rwlock_unlock_write>
    7588:	00 80 fc c0 	move s0, s25
    758c:	fe b3 01 a8 	load_32 ra, 108(sp)
    7590:	7e c3 01 a8 	load_32 s27, 112(sp)
    7594:	5e d3 01 a8 	load_32 s26, 116(sp)
    7598:	3e e3 01 a8 	load_32 s25, 120(sp)
    759c:	1e f3 01 a8 	load_32 s24, 124(sp)
    75a0:	de 03 02 05 	add_i sp, sp, 128
    75a4:	1f 00 00 f0 	ret
    75a8:	00 00 00 4f 	movehi s0, 0
    75ac:	00 24 1c 00 	or s0, s0, 1801
    75b0:	1e 00 00 88 	store_32 s0, (sp)
    75b4:	ff ec ff f9 	call -19460 <panic>

00000000000075b8 soft_fault:
    75b8:	de 03 fe 05 	add_i sp, sp, -128
    75bc:	1e f3 01 88 	store_32 s24, 124(sp)
    75c0:	3e e3 01 88 	store_32 s25, 120(sp)
    75c4:	5e d3 01 88 	store_32 s26, 116(sp)
    75c8:	7e c3 01 88 	store_32 s27, 112(sp)
    75cc:	fe b3 01 88 	store_32 ra, 108(sp)
    75d0:	60 03 f1 c0 	move s27, s2
    75d4:	20 83 f0 c0 	move s25, s1
    75d8:	a3 01 00 f2 	bz s3, 52 <soft_fault+0x54>
    75dc:	39 70 00 a0 	load_u8 s1, 28(s25)
    75e0:	21 08 00 01 	and s1, s1, 2
    75e4:	41 01 00 f4 	bnz s1, 40 <soft_fault+0x54>
    75e8:	20 00 00 4f 	movehi s1, 0
    75ec:	7e 23 00 88 	store_32 s27, 8(sp)
    75f0:	19 80 00 05 	add_i s0, s25, 32
    75f4:	1e 10 00 88 	store_32 s0, 4(sp)
    75f8:	01 94 10 00 	or s0, s1, 1061
    75fc:	1e 00 00 88 	store_32 s0, (sp)
    7600:	1e eb ff f9 	call -21384 <kprintf>
    7604:	20 03 00 0f 	move s25, 0
    7608:	c5 00 00 f6 	b 788 <soft_fault+0x364>
    760c:	7e 60 01 88 	store_32 s3, 88(sp)
    7610:	1e 40 01 88 	store_32 s0, 80(sp)
    7614:	59 23 00 a8 	load_32 s26, 8(s25)
    7618:	19 53 00 a8 	load_32 s24, 20(s25)
    761c:	2d ef ff f9 	call -17228 <disable_interrupts>
    7620:	1e 70 01 88 	store_32 s0, 92(sp)
    7624:	57 02 00 f8 	call 2396 <lock_vm_cache>
    7628:	3e 93 01 88 	store_32 s25, 100(sp)
    762c:	39 43 00 a8 	load_32 s25, 16(s25)
    7630:	79 18 00 f2 	bz s25, 780 <soft_fault+0x384>
    7634:	1b 00 6d c0 	sub_i s0, s27, s26
    7638:	7e 53 01 88 	store_32 s27, 84(sp)
    763c:	60 07 00 0f 	move s27, 1
    7640:	00 00 c0 01 	and s0, s0, -4096
    7644:	1e 30 01 88 	store_32 s0, 76(sp)
    7648:	00 00 5c c0 	add_i s0, s0, s24
    764c:	00 03 00 0f 	move s24, 0
    7650:	00 00 c0 01 	and s0, s0, -4096
    7654:	1e a0 01 88 	store_32 s0, 104(sp)
    7658:	1e 83 01 88 	store_32 s24, 96(sp)
    765c:	00 80 fc c0 	move s0, s25
    7660:	3e a0 01 a8 	load_32 s1, 104(sp)
    7664:	54 03 00 f8 	call 3408 <lookup_cache_page>
    7668:	40 03 f0 c0 	move s26, s0
    766c:	3a 0d 00 f4 	bnz s26, 420 <soft_fault+0x258>
    7670:	19 20 00 a8 	load_32 s0, 8(s25)
    7674:	40 00 00 f2 	bz s0, 8 <soft_fault+0xc4>
    7678:	1b 00 00 f6 	b 108 <soft_fault+0x12c>
    767c:	1e 90 01 a8 	load_32 s0, 100(sp)
    7680:	00 40 00 a8 	load_32 s0, 16(s0)
    7684:	19 00 10 c1 	cmpne_i s0, s25, s0
    7688:	40 00 00 f4 	bnz s0, 8 <soft_fault+0xd8>
    768c:	05 00 00 f6 	b 20 <soft_fault+0xe8>
    7690:	39 43 00 a8 	load_32 s25, 16(s25)
    7694:	00 83 fd c0 	move s24, s27
    7698:	39 fe ff f5 	bnz s25, -60 <soft_fault+0xa4>
    769c:	0b 00 00 f6 	b 44 <soft_fault+0x110>
    76a0:	46 fc ff f9 	call -3816 <vm_allocate_page>
    76a4:	40 00 f0 c0 	move s2, s0
    76a8:	62 63 00 88 	store_32 s27, 24(s2)
    76ac:	00 80 fc c0 	move s0, s25
    76b0:	3e a0 01 a8 	load_32 s1, 104(sp)
    76b4:	5e 80 01 88 	store_32 s2, 96(sp)
    76b8:	00 03 00 f8 	call 3072 <insert_cache_page>
    76bc:	39 43 00 a8 	load_32 s25, 16(s25)
    76c0:	00 83 fd c0 	move s24, s27
    76c4:	d9 fc ff f5 	bnz s25, -104 <soft_fault+0xa4>
    76c8:	5e 83 01 a8 	load_32 s26, 96(sp)
    76cc:	5a 00 00 f4 	bnz s26, 8 <soft_fault+0x11c>
    76d0:	a0 00 00 f6 	b 640 <soft_fault+0x398>
    76d4:	00 00 00 0f 	move s0, 0
    76d8:	1a 60 00 88 	store_32 s0, 24(s26)
    76dc:	7e 53 01 a8 	load_32 s27, 84(sp)
    76e0:	65 00 00 f6 	b 404 <soft_fault+0x2bc>
    76e4:	35 fc ff f9 	call -3884 <vm_allocate_page>
    76e8:	40 03 f0 c0 	move s26, s0
    76ec:	00 04 00 0f 	move s0, 1
    76f0:	1a 60 00 88 	store_32 s0, 24(s26)
    76f4:	00 80 fc c0 	move s0, s25
    76f8:	3e a0 01 a8 	load_32 s1, 104(sp)
    76fc:	40 00 fd c0 	move s2, s26
    7700:	ee 02 00 f8 	call 3000 <insert_cache_page>
    7704:	33 02 00 f8 	call 2252 <unlock_vm_cache>
    7708:	1e 70 01 a8 	load_32 s0, 92(sp)
    770c:	f9 ee ff f9 	call -17436 <restore_interrupts>
    7710:	1e 90 01 a8 	load_32 s0, 100(sp)
    7714:	00 60 00 a8 	load_32 s0, 24(s0)
    7718:	5e 30 01 a8 	load_32 s2, 76(sp)
    771c:	20 00 81 c1 	cmplt_u s1, s0, s2
    7720:	60 03 61 c0 	sub_i s27, s0, s2
    7724:	c1 00 00 f4 	bnz s1, 24 <soft_fault+0x184>
    7728:	1b fc 3f 16 	cmpgt_u s0, s27, 4095
    772c:	40 00 00 f4 	bnz s0, 8 <soft_fault+0x17c>
    7730:	03 00 00 f6 	b 12 <soft_fault+0x184>
    7734:	60 03 40 0f 	move s27, 4096
    7738:	03 00 00 f6 	b 12 <soft_fault+0x18c>
    773c:	1b 04 00 14 	cmplt_i s0, s27, 1
    7740:	a0 04 00 f4 	bnz s0, 148 <soft_fault+0x21c>
    7744:	39 23 00 a8 	load_32 s25, 8(s25)
    7748:	00 00 fd c0 	move s0, s26
    774c:	b4 fc ff f9 	call -3376 <page_to_pa>
    7750:	20 00 c1 4f 	movehi s1, 395264
    7754:	40 80 50 c0 	add_i s2, s0, s1
    7758:	00 80 fc c0 	move s0, s25
    775c:	3e a0 01 a8 	load_32 s1, 104(sp)
    7760:	20 83 fd c0 	move s25, s27
    7764:	60 80 fd c0 	move s3, s27
    7768:	68 f7 ff f9 	call -8800 <read_file>
    776c:	00 fc ff 12 	cmpgt_i s0, s0, -1
    7770:	40 00 00 f4 	bnz s0, 8 <soft_fault+0x1c0>
    7774:	05 00 00 f6 	b 20 <soft_fault+0x1d0>
    7778:	20 80 fc c0 	move s1, s25
    777c:	01 fc 3f 12 	cmpgt_i s0, s1, 4095
    7780:	00 04 00 f4 	bnz s0, 128 <soft_fault+0x248>
    7784:	15 00 00 f6 	b 84 <soft_fault+0x220>
    7788:	00 00 00 4f 	movehi s0, 0
    778c:	00 48 0d 00 	or s0, s0, 850
    7790:	1e 00 00 88 	store_32 s0, (sp)
    7794:	b9 ea ff f9 	call -21788 <kprintf>
    7798:	00 00 fd c0 	move s0, s26
    779c:	4a fc ff f9 	call -3800 <dec_page_ref>
    77a0:	1e 83 01 a8 	load_32 s24, 96(sp)
    77a4:	20 03 00 0f 	move s25, 0
    77a8:	b8 0b 00 f2 	bz s24, 372 <soft_fault+0x364>
    77ac:	c9 ee ff f9 	call -17628 <disable_interrupts>
    77b0:	f4 01 00 f8 	call 2000 <lock_vm_cache>
    77b4:	00 00 fc c0 	move s0, s24
    77b8:	99 02 00 f8 	call 2660 <remove_cache_page>
    77bc:	05 02 00 f8 	call 2068 <unlock_vm_cache>
    77c0:	1e 70 01 a8 	load_32 s0, 92(sp)
    77c4:	cb ee ff f9 	call -17620 <restore_interrupts>
    77c8:	00 00 fc c0 	move s0, s24
    77cc:	3e fc ff f9 	call -3848 <dec_page_ref>
    77d0:	53 00 00 f6 	b 332 <soft_fault+0x364>
    77d4:	20 00 00 0f 	move s1, 0
    77d8:	00 00 fd c0 	move s0, s26
    77dc:	20 83 f0 c0 	move s25, s1
    77e0:	8f fc ff f9 	call -3524 <page_to_pa>
    77e4:	00 80 5c c0 	add_i s0, s0, s25
    77e8:	20 00 40 0f 	move s1, 4096
    77ec:	40 00 c1 4f 	movehi s2, 395264
    77f0:	00 00 51 c0 	add_i s0, s0, s2
    77f4:	41 80 6c c0 	sub_i s2, s1, s25
    77f8:	20 00 00 0f 	move s1, 0
    77fc:	80 ec ff f9 	call -19968 <memset>
    7800:	b4 ee ff f9 	call -17712 <disable_interrupts>
    7804:	df 01 00 f8 	call 1916 <lock_vm_cache>
    7808:	00 00 00 0f 	move s0, 0
    780c:	1a 60 00 88 	store_32 s0, 24(s26)
    7810:	7e 53 01 a8 	load_32 s27, 84(sp)
    7814:	18 03 00 f2 	bz s24, 96 <soft_fault+0x2bc>
    7818:	1e 83 01 a8 	load_32 s24, 96(sp)
    781c:	58 00 00 f4 	bnz s24, 8 <soft_fault+0x26c>
    7820:	4f 00 00 f6 	b 316 <soft_fault+0x3a4>
    7824:	1e 60 01 a8 	load_32 s0, 88(sp)
    7828:	e0 01 00 f2 	bz s0, 60 <soft_fault+0x2ac>
    782c:	00 00 fc c0 	move s0, s24
    7830:	7b fc ff f9 	call -3604 <page_to_pa>
    7834:	00 03 c1 4f 	movehi s24, 395264
    7838:	20 03 5c c0 	add_i s25, s0, s24
    783c:	00 00 fd c0 	move s0, s26
    7840:	77 fc ff f9 	call -3620 <page_to_pa>
    7844:	20 00 5c c0 	add_i s1, s0, s24
    7848:	5e 83 01 a8 	load_32 s26, 96(sp)
    784c:	40 00 40 0f 	move s2, 4096
    7850:	00 80 fc c0 	move s0, s25
    7854:	84 ec ff f9 	call -19952 <memcpy>
    7858:	00 00 00 0f 	move s0, 0
    785c:	1a 60 00 88 	store_32 s0, 24(s26)
    7860:	05 00 00 f6 	b 20 <soft_fault+0x2bc>
    7864:	00 00 fc c0 	move s0, s24
    7868:	6d 02 00 f8 	call 2484 <remove_cache_page>
    786c:	00 00 fc c0 	move s0, s24
    7870:	15 fc ff f9 	call -4012 <dec_page_ref>
    7874:	3e 43 01 a8 	load_32 s25, 80(sp)
    7878:	1e 63 01 a8 	load_32 s24, 88(sp)
    787c:	00 00 fd c0 	move s0, s26
    7880:	0a fc ff f9 	call -4056 <inc_page_ref>
    7884:	d3 01 00 f8 	call 1868 <unlock_vm_cache>
    7888:	1e 70 01 a8 	load_32 s0, 92(sp)
    788c:	99 ee ff f9 	call -17820 <restore_interrupts>
    7890:	1a 60 00 a8 	load_32 s0, 24(s26)
    7894:	80 00 00 f2 	bz s0, 16 <soft_fault+0x2ec>
    7898:	27 f3 ff f9 	call -13156 <reschedule>
    789c:	1a 60 00 a8 	load_32 s0, 24(s26)
    78a0:	c0 ff ff f5 	bnz s0, -8 <soft_fault+0x2e0>
    78a4:	78 00 00 f2 	bz s24, 12 <soft_fault+0x2f8>
    78a8:	00 04 00 0f 	move s0, 1
    78ac:	1a 70 00 88 	store_32 s0, 28(s26)
    78b0:	1e 90 01 a8 	load_32 s0, 100(sp)
    78b4:	00 70 00 a8 	load_32 s0, 28(s0)
    78b8:	20 08 00 01 	and s1, s0, 2
    78bc:	e1 00 00 f2 	bz s1, 28 <soft_fault+0x320>
    78c0:	3a 70 00 a8 	load_32 s1, 28(s26)
    78c4:	21 00 0c c0 	or s1, s1, s24
    78c8:	21 00 00 10 	cmpeq_i s1, s1, 0
    78cc:	61 00 00 f4 	bnz s1, 12 <soft_fault+0x320>
    78d0:	20 0c 00 0f 	move s1, 3
    78d4:	02 00 00 f6 	b 8 <soft_fault+0x324>
    78d8:	20 04 00 0f 	move s1, 1
    78dc:	44 00 00 4f 	movehi s2, 4
    78e0:	00 10 00 01 	and s0, s0, 4
    78e4:	01 03 00 c0 	or s24, s1, s0
    78e8:	42 20 50 00 	or s2, s2, 5128
    78ec:	59 00 01 c1 	cmpeq_i s2, s25, s2
    78f0:	42 00 00 f4 	bnz s2, 8 <soft_fault+0x340>
    78f4:	02 00 00 f6 	b 8 <soft_fault+0x344>
    78f8:	18 63 00 00 	or s24, s24, 24
    78fc:	39 b3 00 a8 	load_32 s25, 44(s25)
    7900:	00 00 fd c0 	move s0, s26
    7904:	46 fc ff f9 	call -3816 <page_to_pa>
    7908:	58 00 00 c0 	or s2, s24, s0
    790c:	00 80 fc c0 	move s0, s25
    7910:	20 80 fd c0 	move s1, s27
    7914:	9d fa ff f9 	call -5516 <vm_map_page>
    7918:	20 07 00 0f 	move s25, 1
    791c:	00 80 fc c0 	move s0, s25
    7920:	fe b3 01 a8 	load_32 ra, 108(sp)
    7924:	7e c3 01 a8 	load_32 s27, 112(sp)
    7928:	5e d3 01 a8 	load_32 s26, 116(sp)
    792c:	3e e3 01 a8 	load_32 s25, 120(sp)
    7930:	1e f3 01 a8 	load_32 s24, 124(sp)
    7934:	de 03 02 05 	add_i sp, sp, 128
    7938:	1f 00 00 f0 	ret
    793c:	00 00 00 4f 	movehi s0, 0
    7940:	20 40 04 0f 	move s1, 272
    7944:	3e 20 00 88 	store_32 s1, 8(sp)
    7948:	00 18 0d 00 	or s0, s0, 838
    794c:	08 00 00 f6 	b 32 <soft_fault+0x3b4>
    7950:	00 00 00 4f 	movehi s0, 0
    7954:	20 80 05 0f 	move s1, 352
    7958:	03 00 00 f6 	b 12 <soft_fault+0x3ac>
    795c:	00 00 00 4f 	movehi s0, 0
    7960:	20 ac 05 0f 	move s1, 363
    7964:	00 e4 13 00 	or s0, s0, 1273
    7968:	3e 20 00 88 	store_32 s1, 8(sp)
    796c:	20 00 00 4f 	movehi s1, 0
    7970:	1e 30 00 88 	store_32 s0, 12(sp)
    7974:	00 00 00 4f 	movehi s0, 0
    7978:	21 84 18 00 	or s1, s1, 1569
    797c:	3e 10 00 88 	store_32 s1, 4(sp)
    7980:	00 7c 15 00 	or s0, s0, 1375
    7984:	1e 00 00 88 	store_32 s0, (sp)
    7988:	0a ec ff f9 	call -20440 <panic>

000000000000798c map_contiguous_memory:
    798c:	de 03 fe 05 	add_i sp, sp, -128
    7990:	1e f3 01 88 	store_32 s24, 124(sp)
    7994:	3e e3 01 88 	store_32 s25, 120(sp)
    7998:	5e d3 01 88 	store_32 s26, 116(sp)
    799c:	7e c3 01 88 	store_32 s27, 112(sp)
    79a0:	fe b3 01 88 	store_32 ra, 108(sp)
    79a4:	20 03 f3 c0 	move s25, s6
    79a8:	9e 90 01 88 	store_32 s4, 100(sp)
    79ac:	7e 80 01 88 	store_32 s3, 96(sp)
    79b0:	00 03 f1 c0 	move s24, s2
    79b4:	60 83 f0 c0 	move s27, s1
    79b8:	40 03 f0 c0 	move s26, s0
    79bc:	be 60 01 88 	store_32 s5, 88(sp)
    79c0:	05 04 00 00 	or s0, s5, 1
    79c4:	1e 70 01 88 	store_32 s0, 92(sp)
    79c8:	00 00 fd c0 	move s0, s26
    79cc:	f4 ec ff f9 	call -19504 <rwlock_lock_write>
    79d0:	20 80 fd c0 	move s1, s27
    79d4:	60 03 fc c0 	move s27, s24
    79d8:	1a 70 00 05 	add_i s0, s26, 28
    79dc:	40 80 fd c0 	move s2, s27
    79e0:	7e 80 01 a8 	load_32 s3, 96(sp)
    79e4:	9e 90 01 a8 	load_32 s4, 100(sp)
    79e8:	be 70 01 a8 	load_32 s5, 92(sp)
    79ec:	7d fc ff f9 	call -3596 <create_vm_area>
    79f0:	40 00 00 f4 	bnz s0, 8 <map_contiguous_memory+0x6c>
    79f4:	0e 00 00 f6 	b 56 <map_contiguous_memory+0xa0>
    79f8:	24 00 00 4f 	movehi s1, 4
    79fc:	00 83 fc c0 	move s24, s25
    7a00:	20 03 00 0f 	move s25, 0
    7a04:	20 43 00 88 	store_32 s25, 16(s0)
    7a08:	21 20 50 00 	or s1, s1, 5128
    7a0c:	80 70 00 a8 	load_32 s4, 28(s0)
    7a10:	3a 80 00 c1 	cmpeq_i s1, s26, s1
    7a14:	60 00 fd c0 	move s3, s26
    7a18:	40 03 f0 c0 	move s26, s0
    7a1c:	81 01 00 f4 	bnz s1, 48 <map_contiguous_memory+0xc0>
    7a20:	20 04 00 0f 	move s1, 1
    7a24:	9b 04 00 f2 	bz s27, 144 <map_contiguous_memory+0x128>
    7a28:	0b 00 00 f6 	b 44 <map_contiguous_memory+0xc8>
    7a2c:	20 00 00 4f 	movehi s1, 0
    7a30:	21 34 18 00 	or s1, s1, 1549
    7a34:	3e 00 00 88 	store_32 s1, (sp)
    7a38:	00 03 f0 c0 	move s24, s0
    7a3c:	0f ea ff f9 	call -22468 <kprintf>
    7a40:	60 00 fd c0 	move s3, s26
    7a44:	40 03 fc c0 	move s26, s24
    7a48:	1b 00 00 f6 	b 108 <map_contiguous_memory+0x128>
    7a4c:	20 64 00 0f 	move s1, 25
    7a50:	3b 03 00 f2 	bz s27, 100 <map_contiguous_memory+0x128>
    7a54:	1e 60 01 a8 	load_32 s0, 88(sp)
    7a58:	40 08 00 01 	and s2, s0, 2
    7a5c:	04 10 00 01 	and s0, s4, 4
    7a60:	02 00 00 c0 	or s0, s2, s0
    7a64:	00 80 00 c0 	or s0, s0, s1
    7a68:	1e 90 01 88 	store_32 s0, 100(sp)
    7a6c:	1e a3 01 88 	store_32 s24, 104(sp)
    7a70:	03 b0 00 a8 	load_32 s0, 44(s3)
    7a74:	59 00 5c c0 	add_i s2, s25, s24
    7a78:	3a 20 00 a8 	load_32 s1, 8(s26)
    7a7c:	9e 90 01 a8 	load_32 s4, 100(sp)
    7a80:	00 03 fd c0 	move s24, s26
    7a84:	40 83 fd c0 	move s26, s27
    7a88:	60 83 f1 c0 	move s27, s3
    7a8c:	21 80 5c c0 	add_i s1, s1, s25
    7a90:	42 00 02 c0 	or s2, s2, s4
    7a94:	3d fa ff f9 	call -5900 <vm_map_page>
    7a98:	39 03 40 05 	add_i s25, s25, 4096
    7a9c:	60 80 fd c0 	move s3, s27
    7aa0:	60 03 fd c0 	move s27, s26
    7aa4:	40 03 fc c0 	move s26, s24
    7aa8:	1e a3 01 a8 	load_32 s24, 104(sp)
    7aac:	19 80 8d c1 	cmplt_u s0, s25, s27
    7ab0:	00 fe ff f5 	bnz s0, -64 <map_contiguous_memory+0xe4>
    7ab4:	00 80 f1 c0 	move s0, s3
    7ab8:	0a ed ff f9 	call -19416 <rwlock_unlock_write>
    7abc:	00 00 fd c0 	move s0, s26
    7ac0:	fe b3 01 a8 	load_32 ra, 108(sp)
    7ac4:	7e c3 01 a8 	load_32 s27, 112(sp)
    7ac8:	5e d3 01 a8 	load_32 s26, 116(sp)
    7acc:	3e e3 01 a8 	load_32 s25, 120(sp)
    7ad0:	1e f3 01 a8 	load_32 s24, 124(sp)
    7ad4:	de 03 02 05 	add_i sp, sp, 128
    7ad8:	1f 00 00 f0 	ret

0000000000007adc destroy_area:
    7adc:	de 03 ff 05 	add_i sp, sp, -64
    7ae0:	1e f3 00 88 	store_32 s24, 60(sp)
    7ae4:	3e e3 00 88 	store_32 s25, 56(sp)
    7ae8:	5e d3 00 88 	store_32 s26, 52(sp)
    7aec:	7e c3 00 88 	store_32 s27, 48(sp)
    7af0:	fe b3 00 88 	store_32 ra, 44(sp)
    7af4:	40 83 f0 c0 	move s26, s1
    7af8:	20 03 f0 c0 	move s25, s0
    7afc:	a8 ec ff f9 	call -19808 <rwlock_lock_write>
    7b00:	1a 43 00 a8 	load_32 s24, 16(s26)
    7b04:	7a 23 00 a8 	load_32 s27, 8(s26)
    7b08:	1a 30 00 a8 	load_32 s0, 12(s26)
    7b0c:	1b 00 70 c1 	cmpge_u s0, s27, s0
    7b10:	80 01 00 f4 	bnz s0, 48 <destroy_area+0x64>
    7b14:	19 b0 00 a8 	load_32 s0, 44(s25)
    7b18:	20 80 fd c0 	move s1, s27
    7b1c:	9a fa ff f9 	call -5528 <query_translation_map>
    7b20:	20 04 00 01 	and s1, s0, 1
    7b24:	61 00 00 f2 	bz s1, 12 <destroy_area+0x54>
    7b28:	a2 fb ff f9 	call -4472 <pa_to_page>
    7b2c:	66 fb ff f9 	call -4712 <dec_page_ref>
    7b30:	1a 30 00 a8 	load_32 s0, 12(s26)
    7b34:	7b 03 40 05 	add_i s27, s27, 4096
    7b38:	1b 00 80 c1 	cmplt_u s0, s27, s0
    7b3c:	c0 fe ff f5 	bnz s0, -40 <destroy_area+0x38>
    7b40:	00 00 fd c0 	move s0, s26
    7b44:	4b fd ff f9 	call -2772 <destroy_vm_area>
    7b48:	00 80 fc c0 	move s0, s25
    7b4c:	e5 ec ff f9 	call -19564 <rwlock_unlock_write>
    7b50:	78 00 00 f2 	bz s24, 12 <destroy_area+0x80>
    7b54:	00 00 fc c0 	move s0, s24
    7b58:	3d 01 00 f8 	call 1268 <dec_cache_ref>
    7b5c:	fe b3 00 a8 	load_32 ra, 44(sp)
    7b60:	7e c3 00 a8 	load_32 s27, 48(sp)
    7b64:	5e d3 00 a8 	load_32 s26, 52(sp)
    7b68:	3e e3 00 a8 	load_32 s25, 56(sp)
    7b6c:	1e f3 00 a8 	load_32 s24, 60(sp)
    7b70:	de 03 01 05 	add_i sp, sp, 64
    7b74:	1f 00 00 f0 	ret

0000000000007b78 handle_page_fault:
    7b78:	de 03 ff 05 	add_i sp, sp, -64
    7b7c:	1e f3 00 88 	store_32 s24, 60(sp)
    7b80:	3e e3 00 88 	store_32 s25, 56(sp)
    7b84:	5e d3 00 88 	store_32 s26, 52(sp)
    7b88:	fe c3 00 88 	store_32 ra, 48(sp)
    7b8c:	5f fc bf 4f 	movehi s2, 393215
    7b90:	20 03 f0 c0 	move s25, s0
    7b94:	40 83 f0 c0 	move s26, s1
    7b98:	02 fc 7f 00 	or s0, s2, 8191
    7b9c:	19 00 60 c1 	cmpgt_u s0, s25, s0
    7ba0:	40 00 00 f4 	bnz s0, 8 <handle_page_fault+0x30>
    7ba4:	04 00 00 f6 	b 16 <handle_page_fault+0x3c>
    7ba8:	04 00 00 4f 	movehi s0, 4
    7bac:	00 23 50 00 	or s24, s0, 5128
    7bb0:	04 00 00 f6 	b 16 <handle_page_fault+0x48>
    7bb4:	13 f1 ff f9 	call -15284 <current_thread>
    7bb8:	00 90 00 a8 	load_32 s0, 36(s0)
    7bbc:	00 73 00 a8 	load_32 s24, 28(s0)
    7bc0:	00 00 fc c0 	move s0, s24
    7bc4:	db eb ff f9 	call -20628 <rwlock_lock_read>
    7bc8:	18 70 00 05 	add_i s0, s24, 28
    7bcc:	20 80 fc c0 	move s1, s25
    7bd0:	41 fd ff f9 	call -2812 <lookup_area>
    7bd4:	20 00 f0 c0 	move s1, s0
    7bd8:	e1 00 00 f2 	bz s1, 28 <handle_page_fault+0x7c>
    7bdc:	00 00 fc c0 	move s0, s24
    7be0:	40 80 fc c0 	move s2, s25
    7be4:	60 00 fd c0 	move s3, s26
    7be8:	74 fe ff f9 	call -1584 <soft_fault>
    7bec:	20 03 f0 c0 	move s25, s0
    7bf0:	02 00 00 f6 	b 8 <handle_page_fault+0x80>
    7bf4:	20 03 00 0f 	move s25, 0
    7bf8:	00 00 fc c0 	move s0, s24
    7bfc:	22 ec ff f9 	call -20344 <rwlock_unlock_read>
    7c00:	00 80 fc c0 	move s0, s25
    7c04:	fe c3 00 a8 	load_32 ra, 48(sp)
    7c08:	5e d3 00 a8 	load_32 s26, 52(sp)
    7c0c:	3e e3 00 a8 	load_32 s25, 56(sp)
    7c10:	1e f3 00 a8 	load_32 s24, 60(sp)
    7c14:	de 03 01 05 	add_i sp, sp, 64
    7c18:	1f 00 00 f0 	ret

0000000000007c1c bootstrap_vm_cache:
    7c1c:	de 03 fc 05 	add_i sp, sp, -256
    7c20:	3e 00 00 05 	add_i s1, sp, 0
    7c24:	04 00 00 4f 	movehi s0, 4
    7c28:	41 10 00 00 	or s2, s1, 4
    7c2c:	00 00 51 00 	or s0, s0, 5184
    7c30:	61 e0 00 00 	or s3, s1, 56
    7c34:	02 00 00 88 	store_32 s0, (s2)
    7c38:	41 f0 00 00 	or s2, s1, 60
    7c3c:	80 e0 00 05 	add_i s4, s0, 56
    7c40:	82 00 00 88 	store_32 s4, (s2)
    7c44:	41 d0 00 00 	or s2, s1, 52
    7c48:	83 00 00 88 	store_32 s4, (s3)
    7c4c:	80 c0 00 05 	add_i s4, s0, 48
    7c50:	61 c0 00 00 	or s3, s1, 48
    7c54:	82 00 00 88 	store_32 s4, (s2)
    7c58:	41 b0 00 00 	or s2, s1, 44
    7c5c:	83 00 00 88 	store_32 s4, (s3)
    7c60:	80 a0 00 05 	add_i s4, s0, 40
    7c64:	82 00 00 88 	store_32 s4, (s2)
    7c68:	61 a0 00 00 	or s3, s1, 40
    7c6c:	41 90 00 00 	or s2, s1, 36
    7c70:	83 00 00 88 	store_32 s4, (s3)
    7c74:	80 80 00 05 	add_i s4, s0, 32
    7c78:	82 00 00 88 	store_32 s4, (s2)
    7c7c:	61 80 00 00 	or s3, s1, 32
    7c80:	41 70 00 00 	or s2, s1, 28
    7c84:	83 00 00 88 	store_32 s4, (s3)
    7c88:	80 60 00 05 	add_i s4, s0, 24
    7c8c:	82 00 00 88 	store_32 s4, (s2)
    7c90:	61 60 00 00 	or s3, s1, 24
    7c94:	41 50 00 00 	or s2, s1, 20
    7c98:	83 00 00 88 	store_32 s4, (s3)
    7c9c:	80 40 00 05 	add_i s4, s0, 16
    7ca0:	82 00 00 88 	store_32 s4, (s2)
    7ca4:	61 40 00 00 	or s3, s1, 16
    7ca8:	41 30 00 00 	or s2, s1, 12
    7cac:	21 20 00 00 	or s1, s1, 8
    7cb0:	83 00 00 88 	store_32 s4, (s3)
    7cb4:	60 20 00 05 	add_i s3, s0, 8
    7cb8:	62 00 00 88 	store_32 s3, (s2)
    7cbc:	80 e0 01 05 	add_i s4, s0, 120
    7cc0:	61 00 00 88 	store_32 s3, (s1)
    7cc4:	3e 00 01 05 	add_i s1, sp, 64
    7cc8:	1e 00 00 88 	store_32 s0, (sp)
    7ccc:	1e 00 00 ae 	load_v v0, (sp)
    7cd0:	41 f0 00 00 	or s2, s1, 60
    7cd4:	00 00 00 8e 	store_v v0, (s0)
    7cd8:	61 e0 00 00 	or s3, s1, 56
    7cdc:	82 00 00 88 	store_32 s4, (s2)
    7ce0:	41 d0 00 00 	or s2, s1, 52
    7ce4:	83 00 00 88 	store_32 s4, (s3)
    7ce8:	61 c0 00 00 	or s3, s1, 48
    7cec:	80 c0 01 05 	add_i s4, s0, 112
    7cf0:	82 00 00 88 	store_32 s4, (s2)
    7cf4:	41 b0 00 00 	or s2, s1, 44
    7cf8:	83 00 00 88 	store_32 s4, (s3)
    7cfc:	61 a0 00 00 	or s3, s1, 40
    7d00:	80 a0 01 05 	add_i s4, s0, 104
    7d04:	82 00 00 88 	store_32 s4, (s2)
    7d08:	41 90 00 00 	or s2, s1, 36
    7d0c:	83 00 00 88 	store_32 s4, (s3)
    7d10:	61 80 00 00 	or s3, s1, 32
    7d14:	80 80 01 05 	add_i s4, s0, 96
    7d18:	82 00 00 88 	store_32 s4, (s2)
    7d1c:	41 70 00 00 	or s2, s1, 28
    7d20:	83 00 00 88 	store_32 s4, (s3)
    7d24:	61 60 00 00 	or s3, s1, 24
    7d28:	80 60 01 05 	add_i s4, s0, 88
    7d2c:	82 00 00 88 	store_32 s4, (s2)
    7d30:	41 50 00 00 	or s2, s1, 20
    7d34:	83 00 00 88 	store_32 s4, (s3)
    7d38:	61 40 00 00 	or s3, s1, 16
    7d3c:	80 40 01 05 	add_i s4, s0, 80
    7d40:	82 00 00 88 	store_32 s4, (s2)
    7d44:	41 30 00 00 	or s2, s1, 12
    7d48:	83 00 00 88 	store_32 s4, (s3)
    7d4c:	81 20 00 00 	or s4, s1, 8
    7d50:	21 10 00 00 	or s1, s1, 4
    7d54:	60 20 01 05 	add_i s3, s0, 72
    7d58:	62 00 00 88 	store_32 s3, (s2)
    7d5c:	64 00 00 88 	store_32 s3, (s4)
    7d60:	40 00 01 05 	add_i s2, s0, 64
    7d64:	41 00 00 88 	store_32 s2, (s1)
    7d68:	3e 00 02 05 	add_i s1, sp, 128
    7d6c:	5e 00 01 88 	store_32 s2, 64(sp)
    7d70:	80 e0 02 05 	add_i s4, s0, 184
    7d74:	1e 00 01 ae 	load_v v0, 64(sp)
    7d78:	41 f0 00 00 	or s2, s1, 60
    7d7c:	00 00 01 8e 	store_v v0, 64(s0)
    7d80:	61 e0 00 00 	or s3, s1, 56
    7d84:	82 00 00 88 	store_32 s4, (s2)
    7d88:	41 d0 00 00 	or s2, s1, 52
    7d8c:	83 00 00 88 	store_32 s4, (s3)
    7d90:	61 c0 00 00 	or s3, s1, 48
    7d94:	80 c0 02 05 	add_i s4, s0, 176
    7d98:	82 00 00 88 	store_32 s4, (s2)
    7d9c:	41 b0 00 00 	or s2, s1, 44
    7da0:	83 00 00 88 	store_32 s4, (s3)
    7da4:	61 a0 00 00 	or s3, s1, 40
    7da8:	80 a0 02 05 	add_i s4, s0, 168
    7dac:	82 00 00 88 	store_32 s4, (s2)
    7db0:	41 90 00 00 	or s2, s1, 36
    7db4:	83 00 00 88 	store_32 s4, (s3)
    7db8:	61 80 00 00 	or s3, s1, 32
    7dbc:	80 80 02 05 	add_i s4, s0, 160
    7dc0:	82 00 00 88 	store_32 s4, (s2)
    7dc4:	41 70 00 00 	or s2, s1, 28
    7dc8:	83 00 00 88 	store_32 s4, (s3)
    7dcc:	61 60 00 00 	or s3, s1, 24
    7dd0:	80 60 02 05 	add_i s4, s0, 152
    7dd4:	82 00 00 88 	store_32 s4, (s2)
    7dd8:	41 50 00 00 	or s2, s1, 20
    7ddc:	83 00 00 88 	store_32 s4, (s3)
    7de0:	61 40 00 00 	or s3, s1, 16
    7de4:	80 40 02 05 	add_i s4, s0, 144
    7de8:	82 00 00 88 	store_32 s4, (s2)
    7dec:	41 30 00 00 	or s2, s1, 12
    7df0:	83 00 00 88 	store_32 s4, (s3)
    7df4:	81 20 00 00 	or s4, s1, 8
    7df8:	21 10 00 00 	or s1, s1, 4
    7dfc:	60 20 02 05 	add_i s3, s0, 136
    7e00:	62 00 00 88 	store_32 s3, (s2)
    7e04:	64 00 00 88 	store_32 s3, (s4)
    7e08:	40 00 02 05 	add_i s2, s0, 128
    7e0c:	41 00 00 88 	store_32 s2, (s1)
    7e10:	3e 00 03 05 	add_i s1, sp, 192
    7e14:	5e 00 02 88 	store_32 s2, 128(sp)
    7e18:	80 e0 03 05 	add_i s4, s0, 248
    7e1c:	1e 00 02 ae 	load_v v0, 128(sp)
    7e20:	41 f0 00 00 	or s2, s1, 60
    7e24:	00 00 02 8e 	store_v v0, 128(s0)
    7e28:	61 e0 00 00 	or s3, s1, 56
    7e2c:	82 00 00 88 	store_32 s4, (s2)
    7e30:	41 d0 00 00 	or s2, s1, 52
    7e34:	83 00 00 88 	store_32 s4, (s3)
    7e38:	61 c0 00 00 	or s3, s1, 48
    7e3c:	80 c0 03 05 	add_i s4, s0, 240
    7e40:	82 00 00 88 	store_32 s4, (s2)
    7e44:	41 b0 00 00 	or s2, s1, 44
    7e48:	83 00 00 88 	store_32 s4, (s3)
    7e4c:	61 a0 00 00 	or s3, s1, 40
    7e50:	80 a0 03 05 	add_i s4, s0, 232
    7e54:	82 00 00 88 	store_32 s4, (s2)
    7e58:	41 90 00 00 	or s2, s1, 36
    7e5c:	83 00 00 88 	store_32 s4, (s3)
    7e60:	61 80 00 00 	or s3, s1, 32
    7e64:	80 80 03 05 	add_i s4, s0, 224
    7e68:	82 00 00 88 	store_32 s4, (s2)
    7e6c:	41 70 00 00 	or s2, s1, 28
    7e70:	83 00 00 88 	store_32 s4, (s3)
    7e74:	61 60 00 00 	or s3, s1, 24
    7e78:	80 60 03 05 	add_i s4, s0, 216
    7e7c:	82 00 00 88 	store_32 s4, (s2)
    7e80:	41 50 00 00 	or s2, s1, 20
    7e84:	83 00 00 88 	store_32 s4, (s3)
    7e88:	61 40 00 00 	or s3, s1, 16
    7e8c:	80 40 03 05 	add_i s4, s0, 208
    7e90:	82 00 00 88 	store_32 s4, (s2)
    7e94:	41 30 00 00 	or s2, s1, 12
    7e98:	83 00 00 88 	store_32 s4, (s3)
    7e9c:	81 20 00 00 	or s4, s1, 8
    7ea0:	21 10 00 00 	or s1, s1, 4
    7ea4:	60 20 03 05 	add_i s3, s0, 200
    7ea8:	62 00 00 88 	store_32 s3, (s2)
    7eac:	64 00 00 88 	store_32 s3, (s4)
    7eb0:	40 00 03 05 	add_i s2, s0, 192
    7eb4:	41 00 00 88 	store_32 s2, (s1)
    7eb8:	20 00 04 05 	add_i s1, s0, 256
    7ebc:	5e 00 03 88 	store_32 s2, 192(sp)
    7ec0:	1e 00 03 ae 	load_v v0, 192(sp)
    7ec4:	00 00 03 8e 	store_v v0, 192(s0)
    7ec8:	20 10 04 88 	store_32 s1, 260(s0)
    7ecc:	20 00 04 88 	store_32 s1, 256(s0)
    7ed0:	20 20 04 05 	add_i s1, s0, 264
    7ed4:	20 30 04 88 	store_32 s1, 268(s0)
    7ed8:	20 20 04 88 	store_32 s1, 264(s0)
    7edc:	20 40 04 05 	add_i s1, s0, 272
    7ee0:	20 50 04 88 	store_32 s1, 276(s0)
    7ee4:	20 40 04 88 	store_32 s1, 272(s0)
    7ee8:	20 60 04 05 	add_i s1, s0, 280
    7eec:	20 70 04 88 	store_32 s1, 284(s0)
    7ef0:	20 60 04 88 	store_32 s1, 280(s0)
    7ef4:	20 80 04 05 	add_i s1, s0, 288
    7ef8:	20 90 04 88 	store_32 s1, 292(s0)
    7efc:	20 80 04 88 	store_32 s1, 288(s0)
    7f00:	de 03 04 05 	add_i sp, sp, 256
    7f04:	1f 00 00 f0 	ret

0000000000007f08 create_vm_cache:
    7f08:	de 03 ff 05 	add_i sp, sp, -64
    7f0c:	1e f3 00 88 	store_32 s24, 60(sp)
    7f10:	fe e3 00 88 	store_32 ra, 56(sp)
    7f14:	00 03 f0 c0 	move s24, s0
    7f18:	04 00 00 4f 	movehi s0, 4
    7f1c:	00 60 42 00 	or s0, s0, 4248
    7f20:	ff ee ff f9 	call -17412 <slab_alloc>
    7f24:	00 10 00 88 	store_32 s0, 4(s0)
    7f28:	20 04 00 0f 	move s1, 1
    7f2c:	00 00 00 88 	store_32 s0, (s0)
    7f30:	20 30 00 88 	store_32 s1, 12(s0)
    7f34:	00 43 00 88 	store_32 s24, 16(s0)
    7f38:	f8 00 00 f2 	bz s24, 28 <create_vm_cache+0x4c>
    7f3c:	38 30 00 05 	add_i s1, s24, 12
    7f40:	41 00 00 aa 	load_sync s2, (s1)
    7f44:	62 04 00 05 	add_i s3, s2, 1
    7f48:	40 00 f1 c0 	move s2, s2
    7f4c:	61 00 00 8a 	store_sync s3, (s1)  
    7f50:	83 ff ff f3 	bz s3, -16 <create_vm_cache+0x38>
    7f54:	fe e3 00 a8 	load_32 ra, 56(sp)
    7f58:	1e f3 00 a8 	load_32 s24, 60(sp)
    7f5c:	de 03 01 05 	add_i sp, sp, 64
    7f60:	1f 00 00 f0 	ret

0000000000007f64 inc_cache_ref:
    7f64:	00 30 00 05 	add_i s0, s0, 12
    7f68:	20 00 00 aa 	load_sync s1, (s0)
    7f6c:	41 04 00 05 	add_i s2, s1, 1
    7f70:	20 80 f0 c0 	move s1, s1
    7f74:	40 00 00 8a 	store_sync s2, (s0)  
    7f78:	82 ff ff f3 	bz s2, -16 <inc_cache_ref+0x4>
    7f7c:	1f 00 00 f0 	ret

0000000000007f80 lock_vm_cache:
    7f80:	04 00 00 4f 	movehi s0, 4
    7f84:	20 04 00 0f 	move s1, 1
    7f88:	40 00 00 0f 	move s2, 0
    7f8c:	00 a0 55 00 	or s0, s0, 5480
    7f90:	60 00 00 a8 	load_32 s3, (s0)
    7f94:	e3 ff ff f5 	bnz s3, -4 <lock_vm_cache+0x10>
    7f98:	60 00 00 aa 	load_sync s3, (s0)
    7f9c:	83 00 11 c1 	cmpne_i s4, s3, s2
    7fa0:	84 00 00 f4 	bnz s4, 16 <lock_vm_cache+0x30>
    7fa4:	80 80 f0 c0 	move s4, s1
    7fa8:	80 00 00 8a 	store_sync s4, (s0)  
    7fac:	64 ff ff f3 	bz s4, -20 <lock_vm_cache+0x18>
    7fb0:	63 00 00 10 	cmpeq_i s3, s3, 0
    7fb4:	63 04 00 01 	and s3, s3, 1
    7fb8:	c3 fe ff f3 	bz s3, -40 <lock_vm_cache+0x10>
    7fbc:	04 00 00 4f 	movehi s0, 4
    7fc0:	20 00 00 ac 	getcr s1, 0
    7fc4:	00 c0 42 00 	or s0, s0, 4272
    7fc8:	20 00 00 88 	store_32 s1, (s0)
    7fcc:	1f 00 00 f0 	ret

0000000000007fd0 unlock_vm_cache:
    7fd0:	de 03 fe 05 	add_i sp, sp, -128
    7fd4:	fe f3 01 88 	store_32 ra, 124(sp)
    7fd8:	04 00 00 4f 	movehi s0, 4
    7fdc:	00 c0 42 00 	or s0, s0, 4272
    7fe0:	20 00 00 a8 	load_32 s1, (s0)
    7fe4:	40 00 00 ac 	getcr s2, 0
    7fe8:	21 00 01 c1 	cmpeq_i s1, s1, s2
    7fec:	41 00 00 f4 	bnz s1, 8 <unlock_vm_cache+0x24>
    7ff0:	0b 00 00 f6 	b 44 <unlock_vm_cache+0x4c>
    7ff4:	24 00 00 4f 	movehi s1, 4
    7ff8:	40 fc ff 0f 	move s2, -1
    7ffc:	40 00 00 88 	store_32 s2, (s0)
    8000:	00 00 00 0f 	move s0, 0
    8004:	21 a0 55 00 	or s1, s1, 5480
    8008:	01 00 00 88 	store_32 s0, (s1)
    800c:	00 00 00 e8 	membar
    8010:	fe f3 01 a8 	load_32 ra, 124(sp)
    8014:	de 03 02 05 	add_i sp, sp, 128
    8018:	1f 00 00 f0 	ret
    801c:	00 00 00 4f 	movehi s0, 0
    8020:	20 08 01 0f 	move s1, 66
    8024:	3e 20 00 88 	store_32 s1, 8(sp)
    8028:	20 00 00 4f 	movehi s1, 0
    802c:	00 b8 07 00 	or s0, s0, 494
    8030:	1e 30 00 88 	store_32 s0, 12(sp)
    8034:	00 00 00 4f 	movehi s0, 0
    8038:	21 64 0a 00 	or s1, s1, 665
    803c:	3e 10 00 88 	store_32 s1, 4(sp)
    8040:	00 7c 15 00 	or s0, s0, 1375
    8044:	1e 00 00 88 	store_32 s0, (sp)
    8048:	5a ea ff f9 	call -22168 <panic>

000000000000804c dec_cache_ref:
    804c:	de 03 fe 05 	add_i sp, sp, -128
    8050:	1e f3 01 88 	store_32 s24, 124(sp)
    8054:	3e e3 01 88 	store_32 s25, 120(sp)
    8058:	5e d3 01 88 	store_32 s26, 116(sp)
    805c:	7e c3 01 88 	store_32 s27, 112(sp)
    8060:	fe b3 01 88 	store_32 ra, 108(sp)
    8064:	24 00 00 4f 	movehi s1, 4
    8068:	41 c3 42 00 	or s26, s1, 4272
    806c:	3a 00 00 a8 	load_32 s1, (s26)
    8070:	40 00 00 ac 	getcr s2, 0
    8074:	00 03 f0 c0 	move s24, s0
    8078:	21 00 11 c1 	cmpne_i s1, s1, s2
    807c:	41 00 00 f4 	bnz s1, 8 <dec_cache_ref+0x38>
    8080:	5a 00 00 f6 	b 360 <dec_cache_ref+0x19c>
    8084:	18 30 00 a8 	load_32 s0, 12(s24)
    8088:	00 00 00 12 	cmpgt_i s0, s0, 0
    808c:	40 00 00 f4 	bnz s0, 8 <dec_cache_ref+0x48>
    8090:	5b 00 00 f6 	b 364 <dec_cache_ref+0x1b0>
    8094:	18 30 00 05 	add_i s0, s24, 12
    8098:	20 00 00 aa 	load_sync s1, (s0)
    809c:	41 fc ff 05 	add_i s2, s1, -1
    80a0:	20 80 f0 c0 	move s1, s1
    80a4:	40 00 00 8a 	store_sync s2, (s0)  
    80a8:	82 ff ff f3 	bz s2, -16 <dec_cache_ref+0x4c>
    80ac:	01 04 00 11 	cmpne_i s0, s1, 1
    80b0:	60 07 00 f4 	bnz s0, 236 <dec_cache_ref+0x150>
    80b4:	18 40 00 a8 	load_32 s0, 16(s24)
    80b8:	40 00 00 f2 	bz s0, 8 <dec_cache_ref+0x74>
    80bc:	e4 ff ff f9 	call -112 <dec_cache_ref>
    80c0:	84 ec ff f9 	call -19952 <disable_interrupts>
    80c4:	24 00 00 4f 	movehi s1, 4
    80c8:	1e a0 01 88 	store_32 s0, 104(sp)
    80cc:	00 04 00 0f 	move s0, 1
    80d0:	20 03 00 0f 	move s25, 0
    80d4:	61 a3 55 00 	or s27, s1, 5480
    80d8:	3b 00 00 a8 	load_32 s1, (s27)
    80dc:	e1 ff ff f5 	bnz s1, -4 <dec_cache_ref+0x8c>
    80e0:	3b 00 00 aa 	load_sync s1, (s27)
    80e4:	41 80 1c c1 	cmpne_i s2, s1, s25
    80e8:	82 00 00 f4 	bnz s2, 16 <dec_cache_ref+0xac>
    80ec:	40 00 f0 c0 	move s2, s0
    80f0:	5b 00 00 8a 	store_sync s2, (s27)  
    80f4:	62 ff ff f3 	bz s2, -20 <dec_cache_ref+0x94>
    80f8:	21 00 00 10 	cmpeq_i s1, s1, 0
    80fc:	21 04 00 01 	and s1, s1, 1
    8100:	c1 fe ff f3 	bz s1, -40 <dec_cache_ref+0x8c>
    8104:	20 00 00 ac 	getcr s1, 0
    8108:	3a 00 00 88 	store_32 s1, (s26)
    810c:	18 10 00 a8 	load_32 s0, 4(s24)
    8110:	40 00 00 ac 	getcr s2, 0
    8114:	60 00 0c c1 	cmpeq_i s3, s0, s24
    8118:	21 00 01 c1 	cmpeq_i s1, s1, s2
    811c:	03 03 00 f4 	bnz s3, 96 <dec_cache_ref+0x130>
    8120:	41 00 00 f4 	bnz s1, 8 <dec_cache_ref+0xdc>
    8124:	25 00 00 f6 	b 148 <dec_cache_ref+0x16c>
    8128:	20 10 00 a8 	load_32 s1, 4(s0)
    812c:	40 00 00 a8 	load_32 s2, (s0)
    8130:	22 10 00 88 	store_32 s1, 4(s2)
    8134:	20 10 00 a8 	load_32 s1, 4(s0)
    8138:	41 00 00 88 	store_32 s2, (s1)
    813c:	20 13 00 88 	store_32 s25, 4(s0)
    8140:	20 03 00 88 	store_32 s25, (s0)
    8144:	20 30 00 a8 	load_32 s1, 12(s0)
    8148:	40 20 00 a8 	load_32 s2, 8(s0)
    814c:	22 10 00 88 	store_32 s1, 4(s2)
    8150:	20 30 00 a8 	load_32 s1, 12(s0)
    8154:	41 00 00 88 	store_32 s2, (s1)
    8158:	20 33 00 88 	store_32 s25, 12(s0)
    815c:	20 23 00 88 	store_32 s25, 8(s0)
    8160:	d9 f9 ff f9 	call -6300 <dec_page_ref>
    8164:	18 10 00 a8 	load_32 s0, 4(s24)
    8168:	3a 00 00 a8 	load_32 s1, (s26)
    816c:	40 00 00 ac 	getcr s2, 0
    8170:	60 00 1c c1 	cmpne_i s3, s0, s24
    8174:	21 00 01 c1 	cmpeq_i s1, s1, s2
    8178:	43 fd ff f5 	bnz s3, -88 <dec_cache_ref+0xd4>
    817c:	41 00 00 f4 	bnz s1, 8 <dec_cache_ref+0x138>
    8180:	24 00 00 f6 	b 144 <dec_cache_ref+0x1c4>
    8184:	00 fc ff 0f 	move s0, -1
    8188:	1a 00 00 88 	store_32 s0, (s26)
    818c:	3b 03 00 88 	store_32 s25, (s27)
    8190:	00 00 00 e8 	membar
    8194:	1e a0 01 a8 	load_32 s0, 104(sp)
    8198:	56 ec ff f9 	call -20136 <restore_interrupts>
    819c:	fe b3 01 a8 	load_32 ra, 108(sp)
    81a0:	7e c3 01 a8 	load_32 s27, 112(sp)
    81a4:	5e d3 01 a8 	load_32 s26, 116(sp)
    81a8:	3e e3 01 a8 	load_32 s25, 120(sp)
    81ac:	1e f3 01 a8 	load_32 s24, 124(sp)
    81b0:	de 03 02 05 	add_i sp, sp, 128
    81b4:	1f 00 00 f0 	ret
    81b8:	00 00 00 4f 	movehi s0, 0
    81bc:	20 3c 02 0f 	move s1, 143
    81c0:	00 b8 07 00 	or s0, s0, 494
    81c4:	3e 20 00 88 	store_32 s1, 8(sp)
    81c8:	20 00 00 4f 	movehi s1, 0
    81cc:	1e 30 00 88 	store_32 s0, 12(sp)
    81d0:	00 00 00 4f 	movehi s0, 0
    81d4:	21 64 0a 00 	or s1, s1, 665
    81d8:	3e 10 00 88 	store_32 s1, 4(sp)
    81dc:	00 7c 15 00 	or s0, s0, 1375
    81e0:	1e 00 00 88 	store_32 s0, (sp)
    81e4:	f3 e9 ff f9 	call -22580 <panic>
    81e8:	00 00 00 4f 	movehi s0, 0
    81ec:	20 44 01 0f 	move s1, 81
    81f0:	3e 20 00 88 	store_32 s1, 8(sp)
    81f4:	00 dc 1f 00 	or s0, s0, 2039
    81f8:	f4 ff ff f7 	b -48 <dec_cache_ref+0x17c>
    81fc:	00 00 00 4f 	movehi s0, 0
    8200:	20 48 01 0f 	move s1, 82
    8204:	3e 20 00 88 	store_32 s1, 8(sp)
    8208:	00 24 14 00 	or s0, s0, 1289
    820c:	ef ff ff f7 	b -68 <dec_cache_ref+0x17c>
    8210:	00 00 00 4f 	movehi s0, 0
    8214:	20 08 01 0f 	move s1, 66
    8218:	ea ff ff f7 	b -88 <dec_cache_ref+0x174>

000000000000821c remove_cache_page:
    821c:	de 03 fe 05 	add_i sp, sp, -128
    8220:	fe f3 01 88 	store_32 ra, 124(sp)
    8224:	24 00 00 4f 	movehi s1, 4
    8228:	21 c0 42 00 	or s1, s1, 4272
    822c:	21 00 00 a8 	load_32 s1, (s1)
    8230:	40 00 00 ac 	getcr s2, 0
    8234:	21 00 01 c1 	cmpeq_i s1, s1, s2
    8238:	41 00 00 f4 	bnz s1, 8 <remove_cache_page+0x24>
    823c:	13 00 00 f6 	b 76 <remove_cache_page+0x6c>
    8240:	20 10 00 a8 	load_32 s1, 4(s0)
    8244:	40 00 00 a8 	load_32 s2, (s0)
    8248:	22 10 00 88 	store_32 s1, 4(s2)
    824c:	20 10 00 a8 	load_32 s1, 4(s0)
    8250:	41 00 00 88 	store_32 s2, (s1)
    8254:	20 00 00 0f 	move s1, 0
    8258:	20 10 00 88 	store_32 s1, 4(s0)
    825c:	20 00 00 88 	store_32 s1, (s0)
    8260:	40 30 00 a8 	load_32 s2, 12(s0)
    8264:	60 20 00 a8 	load_32 s3, 8(s0)
    8268:	43 10 00 88 	store_32 s2, 4(s3)
    826c:	40 30 00 a8 	load_32 s2, 12(s0)
    8270:	62 00 00 88 	store_32 s3, (s2)
    8274:	20 30 00 88 	store_32 s1, 12(s0)
    8278:	20 20 00 88 	store_32 s1, 8(s0)
    827c:	fe f3 01 a8 	load_32 ra, 124(sp)
    8280:	de 03 02 05 	add_i sp, sp, 128
    8284:	1f 00 00 f0 	ret
    8288:	00 00 00 4f 	movehi s0, 0
    828c:	20 3c 02 0f 	move s1, 143
    8290:	3e 20 00 88 	store_32 s1, 8(sp)
    8294:	20 00 00 4f 	movehi s1, 0
    8298:	00 b8 07 00 	or s0, s0, 494
    829c:	1e 30 00 88 	store_32 s0, 12(sp)
    82a0:	00 00 00 4f 	movehi s0, 0
    82a4:	21 64 0a 00 	or s1, s1, 665
    82a8:	3e 10 00 88 	store_32 s1, 4(sp)
    82ac:	00 7c 15 00 	or s0, s0, 1375
    82b0:	1e 00 00 88 	store_32 s0, (sp)
    82b4:	bf e9 ff f9 	call -22788 <panic>

00000000000082b8 insert_cache_page:
    82b8:	de 03 fe 05 	add_i sp, sp, -128
    82bc:	fe f3 01 88 	store_32 ra, 124(sp)
    82c0:	64 00 00 4f 	movehi s3, 4
    82c4:	63 c0 42 00 	or s3, s3, 4272
    82c8:	63 00 00 a8 	load_32 s3, (s3)
    82cc:	80 00 00 ac 	getcr s4, 0
    82d0:	63 00 02 c1 	cmpeq_i s3, s3, s4
    82d4:	43 00 00 f4 	bnz s3, 8 <insert_cache_page+0x24>
    82d8:	26 00 00 f6 	b 152 <insert_cache_page+0xb8>
    82dc:	62 50 00 a8 	load_32 s3, 20(s2)
    82e0:	43 00 00 f2 	bz s3, 8 <insert_cache_page+0x30>
    82e4:	28 00 00 f6 	b 160 <insert_cache_page+0xcc>
    82e8:	61 30 00 0a 	shr s3, s1, 12
    82ec:	02 50 00 88 	store_32 s0, 20(s2)
    82f0:	9c cc ba 4f 	movehi s4, 382588
    82f4:	21 00 c0 01 	and s1, s1, -4096
    82f8:	22 40 00 88 	store_32 s1, 16(s2)
    82fc:	63 00 50 c0 	add_i s3, s3, s0
    8300:	84 34 45 00 	or s4, s4, 4429
    8304:	83 00 82 c0 	mulh_u s4, s3, s4
    8308:	a3 00 62 c0 	sub_i s5, s3, s4
    830c:	a5 04 00 0a 	shr s5, s5, 1
    8310:	85 00 52 c0 	add_i s4, s5, s4
    8314:	a4 00 00 4f 	movehi s5, 4
    8318:	84 14 00 0a 	shr s4, s4, 5
    831c:	84 94 00 07 	mull_i s4, s4, 37
    8320:	63 00 62 c0 	sub_i s3, s3, s4
    8324:	85 00 51 00 	or s4, s5, 5184
    8328:	63 0c 00 0b 	shl s3, s3, 3
    832c:	64 80 51 c0 	add_i s3, s4, s3
    8330:	82 20 00 05 	add_i s4, s2, 8
    8334:	23 00 00 a8 	load_32 s1, (s3)
    8338:	22 20 00 88 	store_32 s1, 8(s2)
    833c:	62 30 00 88 	store_32 s3, 12(s2)
    8340:	81 10 00 88 	store_32 s4, 4(s1)
    8344:	22 30 00 a8 	load_32 s1, 12(s2)
    8348:	81 00 00 88 	store_32 s4, (s1)
    834c:	20 00 00 a8 	load_32 s1, (s0)
    8350:	22 00 00 88 	store_32 s1, (s2)
    8354:	02 10 00 88 	store_32 s0, 4(s2)
    8358:	41 10 00 88 	store_32 s2, 4(s1)
    835c:	02 10 00 a8 	load_32 s0, 4(s2)
    8360:	40 00 00 88 	store_32 s2, (s0)
    8364:	fe f3 01 a8 	load_32 ra, 124(sp)
    8368:	de 03 02 05 	add_i sp, sp, 128
    836c:	1f 00 00 f0 	ret
    8370:	00 00 00 4f 	movehi s0, 0
    8374:	20 c0 01 0f 	move s1, 112
    8378:	3e 20 00 88 	store_32 s1, 8(sp)
    837c:	00 b8 07 00 	or s0, s0, 494
    8380:	05 00 00 f6 	b 20 <insert_cache_page+0xdc>
    8384:	00 00 00 4f 	movehi s0, 0
    8388:	20 d0 01 0f 	move s1, 116
    838c:	3e 20 00 88 	store_32 s1, 8(sp)
    8390:	00 5c 0b 00 	or s0, s0, 727
    8394:	20 00 00 4f 	movehi s1, 0
    8398:	1e 30 00 88 	store_32 s0, 12(sp)
    839c:	00 00 00 4f 	movehi s0, 0
    83a0:	21 64 0a 00 	or s1, s1, 665
    83a4:	3e 10 00 88 	store_32 s1, 4(sp)
    83a8:	00 7c 15 00 	or s0, s0, 1375
    83ac:	1e 00 00 88 	store_32 s0, (sp)
    83b0:	80 e9 ff f9 	call -23040 <panic>

00000000000083b4 lookup_cache_page:
    83b4:	de 03 fe 05 	add_i sp, sp, -128
    83b8:	fe f3 01 88 	store_32 ra, 124(sp)
    83bc:	44 00 00 4f 	movehi s2, 4
    83c0:	42 c0 42 00 	or s2, s2, 4272
    83c4:	42 00 00 a8 	load_32 s2, (s2)
    83c8:	60 00 00 ac 	getcr s3, 0
    83cc:	42 80 01 c1 	cmpeq_i s2, s2, s3
    83d0:	42 00 00 f4 	bnz s2, 8 <lookup_cache_page+0x24>
    83d4:	28 00 00 f6 	b 160 <lookup_cache_page+0xc0>
    83d8:	41 30 00 0a 	shr s2, s1, 12
    83dc:	7c cc ba 4f 	movehi s3, 382588
    83e0:	42 00 50 c0 	add_i s2, s2, s0
    83e4:	63 34 45 00 	or s3, s3, 4429
    83e8:	62 80 81 c0 	mulh_u s3, s2, s3
    83ec:	82 80 61 c0 	sub_i s4, s2, s3
    83f0:	84 04 00 0a 	shr s4, s4, 1
    83f4:	64 80 51 c0 	add_i s3, s4, s3
    83f8:	84 00 00 4f 	movehi s4, 4
    83fc:	63 14 00 0a 	shr s3, s3, 5
    8400:	63 94 00 07 	mull_i s3, s3, 37
    8404:	42 80 61 c0 	sub_i s2, s2, s3
    8408:	64 00 51 00 	or s3, s4, 5184
    840c:	42 0c 00 0b 	shl s2, s2, 3
    8410:	83 00 51 c0 	add_i s4, s3, s2
    8414:	40 00 00 0f 	move s2, 0
    8418:	64 10 00 a8 	load_32 s3, 4(s4)
    841c:	a4 80 01 c1 	cmpeq_i s5, s4, s3
    8420:	85 01 00 f4 	bnz s5, 48 <lookup_cache_page+0x9c>
    8424:	21 00 c0 01 	and s1, s1, -4096
    8428:	a3 20 00 a8 	load_32 s5, 8(s3)
    842c:	a5 80 10 c1 	cmpne_i s5, s5, s1
    8430:	85 00 00 f4 	bnz s5, 16 <lookup_cache_page+0x8c>
    8434:	a3 30 00 a8 	load_32 s5, 12(s3)
    8438:	a5 00 00 c1 	cmpeq_i s5, s5, s0
    843c:	25 01 00 f4 	bnz s5, 36 <lookup_cache_page+0xac>
    8440:	63 10 00 a8 	load_32 s3, 4(s3)
    8444:	a4 80 01 c1 	cmpeq_i s5, s4, s3
    8448:	45 00 00 f4 	bnz s5, 8 <lookup_cache_page+0x9c>
    844c:	f7 ff ff f7 	b -36 <lookup_cache_page+0x74>
    8450:	00 00 f1 c0 	move s0, s2
    8454:	fe f3 01 a8 	load_32 ra, 124(sp)
    8458:	de 03 02 05 	add_i sp, sp, 128
    845c:	1f 00 00 f0 	ret
    8460:	43 e0 ff 05 	add_i s2, s3, -8
    8464:	00 00 f1 c0 	move s0, s2
    8468:	fe f3 01 a8 	load_32 ra, 124(sp)
    846c:	de 03 02 05 	add_i sp, sp, 128
    8470:	1f 00 00 f0 	ret
    8474:	00 00 00 4f 	movehi s0, 0
    8478:	20 00 02 0f 	move s1, 128
    847c:	3e 20 00 88 	store_32 s1, 8(sp)
    8480:	20 00 00 4f 	movehi s1, 0
    8484:	00 b8 07 00 	or s0, s0, 494
    8488:	1e 30 00 88 	store_32 s0, 12(sp)
    848c:	00 00 00 4f 	movehi s0, 0
    8490:	21 64 0a 00 	or s1, s1, 665
    8494:	3e 10 00 88 	store_32 s1, 4(sp)
    8498:	00 7c 15 00 	or s0, s0, 1375
    849c:	1e 00 00 88 	store_32 s0, (sp)
    84a0:	44 e9 ff f9 	call -23280 <panic>

00000000000084a4 handle_syscall:
    84a4:	de 03 fd 05 	add_i sp, sp, -192
    84a8:	1e f3 02 88 	store_32 s24, 188(sp)
    84ac:	3e e3 02 88 	store_32 s25, 184(sp)
    84b0:	5e d3 02 88 	store_32 s26, 180(sp)
    84b4:	7e c3 02 88 	store_32 s27, 176(sp)
    84b8:	fe b3 02 88 	store_32 ra, 172(sp)
    84bc:	20 83 f2 c0 	move s25, s5
    84c0:	60 83 f1 c0 	move s27, s3
    84c4:	00 03 f1 c0 	move s24, s2
    84c8:	c0 28 00 16 	cmpgt_u s6, s0, 10
    84cc:	40 83 f0 c0 	move s26, s1
    84d0:	c6 0d 00 f4 	bnz s6, 440 <handle_syscall+0x1e4>
    84d4:	20 00 00 4f 	movehi s1, 0
    84d8:	00 08 00 0b 	shl s0, s0, 2
    84dc:	21 40 2f 00 	or s1, s1, 3024
    84e0:	00 80 50 c0 	add_i s0, s0, s1
    84e4:	00 00 00 a8 	load_32 s0, (s0)
    84e8:	00 00 00 f0 	b s0
    84ec:	18 f8 00 18 	cmplt_u s0, s24, 62
    84f0:	00 09 00 f4 	bnz s0, 288 <handle_syscall+0x16c>
    84f4:	00 00 00 4f 	movehi s0, 0
    84f8:	00 18 21 00 	or s0, s0, 2118
    84fc:	58 00 00 f6 	b 352 <handle_syscall+0x1b8>
    8500:	00 04 00 0f 	move s0, 1
    8504:	00 03 00 0f 	move s24, 0
    8508:	00 03 00 88 	store_32 s24, (s0)
    850c:	57 00 00 f6 	b 348 <handle_syscall+0x1c4>
    8510:	bc ee ff f9 	call -17680 <current_thread>
    8514:	00 43 00 a8 	load_32 s24, 16(s0)
    8518:	54 00 00 f6 	b 336 <handle_syscall+0x1c4>
    851c:	1a 0c 00 16 	cmpgt_u s0, s26, 3
    8520:	40 07 00 f4 	bnz s0, 232 <handle_syscall+0x164>
    8524:	18 fc ff 4f 	movehi s0, 524280
    8528:	3a 08 00 0b 	shl s1, s26, 2
    852c:	00 40 08 00 	or s0, s0, 528
    8530:	01 00 50 c0 	add_i s0, s1, s0
    8534:	00 03 00 a8 	load_32 s24, (s0)
    8538:	4c 00 00 f6 	b 304 <handle_syscall+0x1c4>
    853c:	b1 ee ff f9 	call -17724 <current_thread>
    8540:	20 90 00 a8 	load_32 s1, 36(s0)
    8544:	00 00 fd c0 	move s0, s26
    8548:	40 00 fc c0 	move s2, s24
    854c:	60 80 fd c0 	move s3, s27
    8550:	69 f0 ff f9 	call -15964 <spawn_user_thread>
    8554:	00 03 00 0f 	move s24, 0
    8558:	44 00 00 f6 	b 272 <handle_syscall+0x1c4>
    855c:	00 00 fd c0 	move s0, s26
    8560:	c0 f0 ff f9 	call -15616 <exec_program>
    8564:	00 08 00 f2 	bz s0, 256 <handle_syscall+0x1c0>
    8568:	00 33 00 a8 	load_32 s24, 12(s0)
    856c:	28 ef ff f9 	call -17248 <dec_proc_ref>
    8570:	3e 00 00 f6 	b 248 <handle_syscall+0x1c4>
    8574:	00 00 fd c0 	move s0, s26
    8578:	79 00 00 f8 	call 484 <init_vga>
    857c:	00 03 f0 c0 	move s24, s0
    8580:	3a 00 00 f6 	b 232 <handle_syscall+0x1c4>
    8584:	1e b0 01 05 	add_i s0, sp, 108
    8588:	40 00 01 0f 	move s2, 64
    858c:	20 00 f2 c0 	move s1, s4
    8590:	5a 00 00 f8 	call 360 <user_strlcpy>
    8594:	00 00 00 14 	cmplt_i s0, s0, 0
    8598:	80 03 00 f4 	bnz s0, 112 <handle_syscall+0x164>
    859c:	99 ee ff f9 	call -17820 <current_thread>
    85a0:	00 90 00 a8 	load_32 s0, 36(s0)
    85a4:	9e b0 01 05 	add_i s4, sp, 108
    85a8:	00 70 00 a8 	load_32 s0, 28(s0)
    85ac:	40 00 fc c0 	move s2, s24
    85b0:	00 03 00 0f 	move s24, 0
    85b4:	20 00 fd c0 	move s1, s26
    85b8:	60 80 fd c0 	move s3, s27
    85bc:	a0 80 fc c0 	move s5, s25
    85c0:	c0 00 fc c0 	move s6, s24
    85c4:	e0 00 fc c0 	move s7, s24
    85c8:	ae fb ff f9 	call -4424 <create_area>
    85cc:	e0 04 00 f2 	bz s0, 156 <handle_syscall+0x1c4>
    85d0:	00 23 00 a8 	load_32 s24, 8(s0)
    85d4:	25 00 00 f6 	b 148 <handle_syscall+0x1c4>
    85d8:	40 00 fc c0 	move s2, s24
    85dc:	1a 0c 00 16 	cmpgt_u s0, s26, 3
    85e0:	00 03 00 0f 	move s24, 0
    85e4:	20 04 00 f4 	bnz s0, 132 <handle_syscall+0x1c4>
    85e8:	18 fc ff 4f 	movehi s0, 524280
    85ec:	3a 08 00 0b 	shl s1, s26, 2
    85f0:	00 00 08 00 	or s0, s0, 512
    85f4:	01 00 50 c0 	add_i s0, s1, s0
    85f8:	40 00 00 88 	store_32 s2, (s0)
    85fc:	1b 00 00 f6 	b 108 <handle_syscall+0x1c4>
    8600:	06 03 00 ac 	getcr s24, 6
    8604:	19 00 00 f6 	b 100 <handle_syscall+0x1c4>
    8608:	00 03 00 0f 	move s24, 0
    860c:	17 00 00 f6 	b 92 <handle_syscall+0x1c4>
    8610:	3e b3 01 05 	add_i s25, sp, 108
    8614:	00 80 fc c0 	move s0, s25
    8618:	20 00 fd c0 	move s1, s26
    861c:	40 00 fc c0 	move s2, s24
    8620:	21 00 00 f8 	call 132 <user_copy>
    8624:	00 fc ff 12 	cmpgt_i s0, s0, -1
    8628:	40 00 00 f4 	bnz s0, 8 <handle_syscall+0x18c>
    862c:	0a 00 00 f6 	b 40 <handle_syscall+0x1b0>
    8630:	19 00 5c c0 	add_i s0, s25, s24
    8634:	00 03 00 0f 	move s24, 0
    8638:	00 03 00 82 	store_8 s24, (s0)
    863c:	00 00 00 4f 	movehi s0, 0
    8640:	3e 13 00 88 	store_32 s25, 4(sp)
    8644:	00 ac 07 00 	or s0, s0, 491
    8648:	1e 00 00 88 	store_32 s0, (sp)
    864c:	0b e7 ff f9 	call -25556 <kprintf>
    8650:	06 00 00 f6 	b 24 <handle_syscall+0x1c4>
    8654:	00 00 00 4f 	movehi s0, 0
    8658:	00 70 08 00 	or s0, s0, 540
    865c:	1e 00 00 88 	store_32 s0, (sp)
    8660:	06 e7 ff f9 	call -25576 <kprintf>
    8664:	00 ff ff 0f 	move s24, -1
    8668:	00 00 fc c0 	move s0, s24
    866c:	fe b3 02 a8 	load_32 ra, 172(sp)
    8670:	7e c3 02 a8 	load_32 s27, 176(sp)
    8674:	5e d3 02 a8 	load_32 s26, 180(sp)
    8678:	3e e3 02 a8 	load_32 s25, 184(sp)
    867c:	1e f3 02 a8 	load_32 s24, 188(sp)
    8680:	de 03 03 05 	add_i sp, sp, 192
    8684:	1f 00 00 f0 	ret
    8688:	20 00 00 4f 	movehi s1, 0
    868c:	1e 10 00 88 	store_32 s0, 4(sp)
    8690:	01 70 1d 00 	or s0, s1, 1884
    8694:	1e 00 00 88 	store_32 s0, (sp)
    8698:	c6 e8 ff f9 	call -23784 <panic>
    869c:	00 00 fd c0 	move s0, s26
    86a0:	da f0 ff f9 	call -15512 <thread_exit>

00000000000086a4 user_copy:
    86a4:	64 00 00 4f 	movehi s3, 4
    86a8:	63 00 43 00 	or s3, s3, 4288
    86ac:	80 00 00 ac 	getcr s4, 0
    86b0:	84 08 00 0b 	shl s4, s4, 2
    86b4:	84 80 51 c0 	add_i s4, s4, s3
    86b8:	64 00 00 4f 	movehi s3, 4
    86bc:	63 80 1b 00 	or s3, s3, 1760
    86c0:	64 00 00 88 	store_32 s3, (s4)
    86c4:	22 01 00 f2 	bz s2, 36 <uc_fault+0x8>
    86c8:	61 00 00 a2 	load_s8 s3, (s1)
    86cc:	60 00 00 82 	store_8 s3, (s0)
    86d0:	00 04 00 05 	add_i s0, s0, 1
    86d4:	21 04 00 05 	add_i s1, s1, 1
    86d8:	42 04 00 06 	sub_i s2, s2, 1
    86dc:	fa ff ff f7 	b -24 <user_copy+0x20>

00000000000086e0 uc_fault:
    86e0:	00 fc ff 0f 	move s0, -1
    86e4:	02 00 00 f6 	b 8 <uc_fault+0xc>
    86e8:	00 00 00 0f 	move s0, 0
    86ec:	60 00 00 0f 	move s3, 0
    86f0:	64 00 00 88 	store_32 s3, (s4)
    86f4:	1f 00 00 f0 	ret

00000000000086f8 user_strlcpy:
    86f8:	64 00 00 4f 	movehi s3, 4
    86fc:	63 00 43 00 	or s3, s3, 4288
    8700:	80 00 00 ac 	getcr s4, 0
    8704:	84 08 00 0b 	shl s4, s4, 2
    8708:	84 80 51 c0 	add_i s4, s4, s3
    870c:	64 00 00 4f 	movehi s3, 4
    8710:	63 f0 1c 00 	or s3, s3, 1852
    8714:	64 00 00 88 	store_32 s3, (s4)
    8718:	62 01 00 f2 	bz s2, 44 <usc_fault+0x8>
    871c:	42 04 00 06 	sub_i s2, s2, 1
    8720:	22 01 00 f2 	bz s2, 36 <usc_fault+0x8>
    8724:	61 00 00 a2 	load_s8 s3, (s1)
    8728:	e3 00 00 f2 	bz s3, 28 <usc_fault+0x8>
    872c:	60 00 00 82 	store_8 s3, (s0)
    8730:	00 04 00 05 	add_i s0, s0, 1
    8734:	21 04 00 05 	add_i s1, s1, 1
    8738:	f9 ff ff f7 	b -28 <user_strlcpy+0x24>

000000000000873c usc_fault:
    873c:	00 fc ff 0f 	move s0, -1
    8740:	04 00 00 f6 	b 16 <usc_fault+0x14>
    8744:	60 00 00 0f 	move s3, 0
    8748:	60 00 00 82 	store_8 s3, (s0)
    874c:	00 00 00 0f 	move s0, 0
    8750:	60 00 00 0f 	move s3, 0
    8754:	64 00 00 88 	store_32 s3, (s4)
    8758:	1f 00 00 f0 	ret

000000000000875c init_vga:
    875c:	de 03 fe 05 	add_i sp, sp, -128
    8760:	1e f3 01 88 	store_32 s24, 124(sp)
    8764:	3e e3 01 88 	store_32 s25, 120(sp)
    8768:	5e d3 01 88 	store_32 s26, 116(sp)
    876c:	7e c3 01 88 	store_32 s27, 112(sp)
    8770:	fe b3 01 88 	store_32 ra, 108(sp)
    8774:	20 00 f0 c0 	move s1, s0
    8778:	78 ff ff 4f 	movehi s27, 524280
    877c:	00 00 00 0f 	move s0, 0
    8780:	41 04 00 10 	cmpeq_i s2, s1, 1
    8784:	7b 00 06 00 	or s3, s27, 384
    8788:	03 00 00 88 	store_32 s0, (s3)
    878c:	42 01 00 f4 	bnz s2, 40 <init_vga+0x58>
    8790:	a1 05 00 f4 	bnz s1, 180 <init_vga+0xe8>
    8794:	7e a0 01 88 	store_32 s3, 104(sp)
    8798:	00 28 00 0f 	move s0, 10
    879c:	20 84 00 0f 	move s1, 33
    87a0:	40 00 00 0f 	move s2, 0
    87a4:	60 80 07 0f 	move s3, 480
    87a8:	2e 00 00 f8 	call 184 <compile_microcode>
    87ac:	16 13 00 4f 	movehi s24, 150
    87b0:	08 00 00 f6 	b 32 <init_vga+0x74>
    87b4:	7e a0 01 88 	store_32 s3, 104(sp)
    87b8:	00 30 00 0f 	move s0, 12
    87bc:	20 8c 00 0f 	move s1, 35
    87c0:	40 04 00 0f 	move s2, 1
    87c4:	60 40 06 0f 	move s3, 400
    87c8:	26 00 00 f8 	call 152 <compile_microcode>
    87cc:	1d 0f 00 4f 	movehi s24, 125
    87d0:	00 00 fc c0 	move s0, s24
    87d4:	99 f8 ff f9 	call -7580 <allocate_contiguous_memory>
    87d8:	20 03 f0 c0 	move s25, s0
    87dc:	09 ee ff f9 	call -18396 <current_thread>
    87e0:	00 90 00 a8 	load_32 s0, 36(s0)
    87e4:	20 00 00 4f 	movehi s1, 0
    87e8:	60 08 00 0f 	move s3, 2
    87ec:	a0 0c 00 0f 	move s5, 3
    87f0:	81 90 0a 00 	or s4, s1, 676
    87f4:	00 70 00 a8 	load_32 s0, 28(s0)
    87f8:	40 00 fc c0 	move s2, s24
    87fc:	20 00 40 4f 	movehi s1, 131072
    8800:	c0 80 fc c0 	move s6, s25
    8804:	62 fc ff f9 	call -3704 <map_contiguous_memory>
    8808:	40 03 f0 c0 	move s26, s0
    880c:	3b 20 06 00 	or s1, s27, 392
    8810:	1b 30 06 00 	or s0, s27, 396
    8814:	21 03 00 88 	store_32 s25, (s1)
    8818:	38 08 00 0a 	shr s1, s24, 2
    881c:	20 00 00 88 	store_32 s1, (s0)
    8820:	00 04 00 0f 	move s0, 1
    8824:	3e a0 01 a8 	load_32 s1, 104(sp)
    8828:	01 00 00 88 	store_32 s0, (s1)
    882c:	00 00 00 4f 	movehi s0, 0
    8830:	1e 13 00 88 	store_32 s24, 4(sp)
    8834:	00 58 24 00 	or s0, s0, 2326
    8838:	1e 00 00 88 	store_32 s0, (sp)
    883c:	8f e6 ff f9 	call -26052 <kprintf>
    8840:	1a 20 00 a8 	load_32 s0, 8(s26)
    8844:	fe b3 01 a8 	load_32 ra, 108(sp)
    8848:	7e c3 01 a8 	load_32 s27, 112(sp)
    884c:	5e d3 01 a8 	load_32 s26, 116(sp)
    8850:	3e e3 01 a8 	load_32 s25, 120(sp)
    8854:	1e f3 01 a8 	load_32 s24, 124(sp)
    8858:	de 03 02 05 	add_i sp, sp, 128
    885c:	1f 00 00 f0 	ret

0000000000008860 compile_microcode:
    8860:	42 00 00 10 	cmpeq_i s2, s2, 0
    8864:	62 00 00 f4 	bnz s2, 12 <compile_microcode+0x10>
    8868:	a0 10 00 0f 	move s5, 4
    886c:	02 00 00 f6 	b 8 <compile_microcode+0x14>
    8870:	a0 30 00 0f 	move s5, 12
    8874:	44 00 00 4f 	movehi s2, 4
    8878:	84 00 00 4f 	movehi s4, 4
    887c:	00 10 00 0b 	shl s0, s0, 4
    8880:	42 b0 55 00 	or s2, s2, 5484
    8884:	f8 fc ff 4f 	movehi s7, 524280
    8888:	84 c0 55 00 	or s4, s4, 5488
    888c:	a2 00 00 88 	store_32 s5, (s2)
    8890:	a0 80 02 c0 	or s5, s0, s5
    8894:	07 10 06 00 	or s0, s7, 388
    8898:	10 01 00 4f 	movehi s8, 16
    889c:	c0 00 00 0f 	move s6, 0
    88a0:	c4 00 00 88 	store_32 s6, (s4)
    88a4:	a5 00 04 c0 	or s5, s5, s8
    88a8:	a0 00 00 88 	store_32 s5, (s0)
    88ac:	a4 00 00 a8 	load_32 s5, (s4)
    88b0:	21 10 00 0b 	shl s1, s1, 4
    88b4:	63 10 00 0b 	shl s3, s3, 4
    88b8:	c5 04 00 05 	add_i s6, s5, 1
    88bc:	c4 00 00 88 	store_32 s6, (s4)
    88c0:	a2 00 00 a8 	load_32 s5, (s2)
    88c4:	c6 10 00 0b 	shl s6, s6, 4
    88c8:	a5 c0 03 00 	or s5, s5, 240
    88cc:	a0 00 00 88 	store_32 s5, (s0)
    88d0:	a4 00 00 a8 	load_32 s5, (s4)
    88d4:	a5 04 00 05 	add_i s5, s5, 1
    88d8:	a4 00 00 88 	store_32 s5, (s4)
    88dc:	e2 00 00 a8 	load_32 s7, (s2)
    88e0:	a5 10 00 0b 	shl s5, s5, 4
    88e4:	e5 80 03 c0 	or s7, s5, s7
    88e8:	a0 04 00 4f 	movehi s5, 32
    88ec:	e7 80 02 c0 	or s7, s7, s5
    88f0:	e0 00 00 88 	store_32 s7, (s0)
    88f4:	e4 00 00 a8 	load_32 s7, (s4)
    88f8:	e7 04 00 05 	add_i s7, s7, 1
    88fc:	e4 00 00 88 	store_32 s7, (s4)
    8900:	e2 00 00 a8 	load_32 s7, (s2)
    8904:	e7 10 00 03 	xor s7, s7, 4
    8908:	e2 00 00 88 	store_32 s7, (s2)
    890c:	e7 c0 17 00 	or s7, s7, 1520
    8910:	e0 00 00 88 	store_32 s7, (s0)
    8914:	e4 00 00 a8 	load_32 s7, (s4)
    8918:	e7 04 00 05 	add_i s7, s7, 1
    891c:	e4 00 00 88 	store_32 s7, (s4)
    8920:	22 01 00 a8 	load_32 s9, (s2)
    8924:	e7 10 00 0b 	shl s7, s7, 4
    8928:	e7 80 04 c0 	or s7, s7, s9
    892c:	e7 80 02 c0 	or s7, s7, s5
    8930:	e0 00 00 88 	store_32 s7, (s0)
    8934:	e4 00 00 a8 	load_32 s7, (s4)
    8938:	e7 04 00 05 	add_i s7, s7, 1
    893c:	e4 00 00 88 	store_32 s7, (s4)
    8940:	e2 00 00 a8 	load_32 s7, (s2)
    8944:	e7 10 00 03 	xor s7, s7, 4
    8948:	e2 00 00 88 	store_32 s7, (s2)
    894c:	e7 c0 0b 00 	or s7, s7, 752
    8950:	e0 00 00 88 	store_32 s7, (s0)
    8954:	e4 00 00 a8 	load_32 s7, (s4)
    8958:	e7 04 00 05 	add_i s7, s7, 1
    895c:	e4 00 00 88 	store_32 s7, (s4)
    8960:	22 01 00 a8 	load_32 s9, (s2)
    8964:	e7 10 00 0b 	shl s7, s7, 4
    8968:	e7 80 04 c0 	or s7, s7, s9
    896c:	e7 80 02 c0 	or s7, s7, s5
    8970:	e0 00 00 88 	store_32 s7, (s0)
    8974:	e4 00 00 a8 	load_32 s7, (s4)
    8978:	e7 04 00 05 	add_i s7, s7, 1
    897c:	e4 00 00 88 	store_32 s7, (s4)
    8980:	e1 00 00 4f 	movehi s7, 1
    8984:	22 01 00 a8 	load_32 s9, (s2)
    8988:	e7 c0 1f 00 	or s7, s7, 2032
    898c:	29 81 03 c0 	or s9, s9, s7
    8990:	20 01 00 88 	store_32 s9, (s0)
    8994:	24 01 00 a8 	load_32 s9, (s4)
    8998:	29 05 00 05 	add_i s9, s9, 1
    899c:	24 01 00 88 	store_32 s9, (s4)
    89a0:	42 01 00 a8 	load_32 s10, (s2)
    89a4:	29 11 00 0b 	shl s9, s9, 4
    89a8:	29 01 05 c0 	or s9, s9, s10
    89ac:	48 81 00 00 	or s10, s8, 32
    89b0:	29 81 02 c0 	or s9, s9, s5
    89b4:	20 01 00 88 	store_32 s9, (s0)
    89b8:	24 01 00 a8 	load_32 s9, (s4)
    89bc:	29 05 00 05 	add_i s9, s9, 1
    89c0:	24 01 00 88 	store_32 s9, (s4)
    89c4:	22 01 00 a8 	load_32 s9, (s2)
    89c8:	26 81 04 c0 	or s9, s6, s9
    89cc:	d0 04 00 4f 	movehi s6, 48
    89d0:	29 01 03 c0 	or s9, s9, s6
    89d4:	20 01 00 88 	store_32 s9, (s0)
    89d8:	24 01 00 a8 	load_32 s9, (s4)
    89dc:	29 05 00 05 	add_i s9, s9, 1
    89e0:	24 01 00 88 	store_32 s9, (s4)
    89e4:	22 01 00 a8 	load_32 s9, (s2)
    89e8:	29 21 00 03 	xor s9, s9, 8
    89ec:	22 01 00 88 	store_32 s9, (s2)
    89f0:	29 01 05 c0 	or s9, s9, s10
    89f4:	20 01 00 88 	store_32 s9, (s0)
    89f8:	24 01 00 a8 	load_32 s9, (s4)
    89fc:	29 05 00 05 	add_i s9, s9, 1
    8a00:	24 01 00 88 	store_32 s9, (s4)
    8a04:	42 01 00 a8 	load_32 s10, (s2)
    8a08:	29 11 00 0b 	shl s9, s9, 4
    8a0c:	4a c1 03 00 	or s10, s10, 240
    8a10:	40 01 00 88 	store_32 s10, (s0)
    8a14:	44 01 00 a8 	load_32 s10, (s4)
    8a18:	4a 05 00 05 	add_i s10, s10, 1
    8a1c:	44 01 00 88 	store_32 s10, (s4)
    8a20:	62 01 00 a8 	load_32 s11, (s2)
    8a24:	4a 11 00 0b 	shl s10, s10, 4
    8a28:	4a 81 05 c0 	or s10, s10, s11
    8a2c:	4a 81 02 c0 	or s10, s10, s5
    8a30:	40 01 00 88 	store_32 s10, (s0)
    8a34:	44 01 00 a8 	load_32 s10, (s4)
    8a38:	4a 05 00 05 	add_i s10, s10, 1
    8a3c:	44 01 00 88 	store_32 s10, (s4)
    8a40:	42 01 00 a8 	load_32 s10, (s2)
    8a44:	4a 11 00 03 	xor s10, s10, 4
    8a48:	42 01 00 88 	store_32 s10, (s2)
    8a4c:	4a c1 17 00 	or s10, s10, 1520
    8a50:	40 01 00 88 	store_32 s10, (s0)
    8a54:	44 01 00 a8 	load_32 s10, (s4)
    8a58:	4a 05 00 05 	add_i s10, s10, 1
    8a5c:	44 01 00 88 	store_32 s10, (s4)
    8a60:	62 01 00 a8 	load_32 s11, (s2)
    8a64:	4a 11 00 0b 	shl s10, s10, 4
    8a68:	4a 81 05 c0 	or s10, s10, s11
    8a6c:	4a 81 02 c0 	or s10, s10, s5
    8a70:	40 01 00 88 	store_32 s10, (s0)
    8a74:	44 01 00 a8 	load_32 s10, (s4)
    8a78:	4a 05 00 05 	add_i s10, s10, 1
    8a7c:	44 01 00 88 	store_32 s10, (s4)
    8a80:	42 01 00 a8 	load_32 s10, (s2)
    8a84:	4a 11 00 03 	xor s10, s10, 4
    8a88:	42 01 00 88 	store_32 s10, (s2)
    8a8c:	4a c1 0b 00 	or s10, s10, 752
    8a90:	40 01 00 88 	store_32 s10, (s0)
    8a94:	44 01 00 a8 	load_32 s10, (s4)
    8a98:	4a 05 00 05 	add_i s10, s10, 1
    8a9c:	44 01 00 88 	store_32 s10, (s4)
    8aa0:	62 01 00 a8 	load_32 s11, (s2)
    8aa4:	4a 11 00 0b 	shl s10, s10, 4
    8aa8:	4a 81 05 c0 	or s10, s10, s11
    8aac:	4a 81 02 c0 	or s10, s10, s5
    8ab0:	40 01 00 88 	store_32 s10, (s0)
    8ab4:	44 01 00 a8 	load_32 s10, (s4)
    8ab8:	4a 05 00 05 	add_i s10, s10, 1
    8abc:	44 01 00 88 	store_32 s10, (s4)
    8ac0:	42 01 00 a8 	load_32 s10, (s2)
    8ac4:	4a 81 03 c0 	or s10, s10, s7
    8ac8:	40 01 00 88 	store_32 s10, (s0)
    8acc:	44 01 00 a8 	load_32 s10, (s4)
    8ad0:	4a 05 00 05 	add_i s10, s10, 1
    8ad4:	44 01 00 88 	store_32 s10, (s4)
    8ad8:	62 01 00 a8 	load_32 s11, (s2)
    8adc:	4a 11 00 0b 	shl s10, s10, 4
    8ae0:	4a 81 05 c0 	or s10, s10, s11
    8ae4:	4a 81 02 c0 	or s10, s10, s5
    8ae8:	40 01 00 88 	store_32 s10, (s0)
    8aec:	44 01 00 a8 	load_32 s10, (s4)
    8af0:	4a 05 00 05 	add_i s10, s10, 1
    8af4:	44 01 00 88 	store_32 s10, (s4)
    8af8:	42 01 00 a8 	load_32 s10, (s2)
    8afc:	29 01 05 c0 	or s9, s9, s10
    8b00:	29 01 03 c0 	or s9, s9, s6
    8b04:	20 01 00 88 	store_32 s9, (s0)
    8b08:	24 01 00 a8 	load_32 s9, (s4)
    8b0c:	29 05 00 05 	add_i s9, s9, 1
    8b10:	24 01 00 88 	store_32 s9, (s4)
    8b14:	22 01 00 a8 	load_32 s9, (s2)
    8b18:	29 21 00 03 	xor s9, s9, 8
    8b1c:	22 01 00 88 	store_32 s9, (s2)
    8b20:	21 80 04 c0 	or s1, s1, s9
    8b24:	21 00 04 c0 	or s1, s1, s8
    8b28:	20 00 00 88 	store_32 s1, (s0)
    8b2c:	24 00 00 a8 	load_32 s1, (s4)
    8b30:	21 04 00 05 	add_i s1, s1, 1
    8b34:	24 00 00 88 	store_32 s1, (s4)
    8b38:	22 01 00 a8 	load_32 s9, (s2)
    8b3c:	21 10 00 0b 	shl s1, s1, 4
    8b40:	29 c1 03 00 	or s9, s9, 240
    8b44:	20 01 00 88 	store_32 s9, (s0)
    8b48:	24 01 00 a8 	load_32 s9, (s4)
    8b4c:	29 05 00 05 	add_i s9, s9, 1
    8b50:	24 01 00 88 	store_32 s9, (s4)
    8b54:	42 01 00 a8 	load_32 s10, (s2)
    8b58:	29 11 00 0b 	shl s9, s9, 4
    8b5c:	29 01 05 c0 	or s9, s9, s10
    8b60:	29 81 02 c0 	or s9, s9, s5
    8b64:	20 01 00 88 	store_32 s9, (s0)
    8b68:	24 01 00 a8 	load_32 s9, (s4)
    8b6c:	29 05 00 05 	add_i s9, s9, 1
    8b70:	24 01 00 88 	store_32 s9, (s4)
    8b74:	22 01 00 a8 	load_32 s9, (s2)
    8b78:	29 11 00 03 	xor s9, s9, 4
    8b7c:	22 01 00 88 	store_32 s9, (s2)
    8b80:	29 c1 17 00 	or s9, s9, 1520
    8b84:	20 01 00 88 	store_32 s9, (s0)
    8b88:	24 01 00 a8 	load_32 s9, (s4)
    8b8c:	29 05 00 05 	add_i s9, s9, 1
    8b90:	24 01 00 88 	store_32 s9, (s4)
    8b94:	42 01 00 a8 	load_32 s10, (s2)
    8b98:	29 11 00 0b 	shl s9, s9, 4
    8b9c:	29 01 05 c0 	or s9, s9, s10
    8ba0:	29 81 02 c0 	or s9, s9, s5
    8ba4:	20 01 00 88 	store_32 s9, (s0)
    8ba8:	24 01 00 a8 	load_32 s9, (s4)
    8bac:	29 05 00 05 	add_i s9, s9, 1
    8bb0:	24 01 00 88 	store_32 s9, (s4)
    8bb4:	22 01 00 a8 	load_32 s9, (s2)
    8bb8:	29 11 00 03 	xor s9, s9, 4
    8bbc:	22 01 00 88 	store_32 s9, (s2)
    8bc0:	29 c1 0b 00 	or s9, s9, 752
    8bc4:	20 01 00 88 	store_32 s9, (s0)
    8bc8:	24 01 00 a8 	load_32 s9, (s4)
    8bcc:	29 05 00 05 	add_i s9, s9, 1
    8bd0:	24 01 00 88 	store_32 s9, (s4)
    8bd4:	42 01 00 a8 	load_32 s10, (s2)
    8bd8:	29 11 00 0b 	shl s9, s9, 4
    8bdc:	29 01 05 c0 	or s9, s9, s10
    8be0:	29 81 02 c0 	or s9, s9, s5
    8be4:	20 01 00 88 	store_32 s9, (s0)
    8be8:	24 01 00 a8 	load_32 s9, (s4)
    8bec:	29 05 00 05 	add_i s9, s9, 1
    8bf0:	24 01 00 88 	store_32 s9, (s4)
    8bf4:	22 01 00 a8 	load_32 s9, (s2)
    8bf8:	29 81 03 c0 	or s9, s9, s7
    8bfc:	20 01 00 88 	store_32 s9, (s0)
    8c00:	24 01 00 a8 	load_32 s9, (s4)
    8c04:	29 05 00 05 	add_i s9, s9, 1
    8c08:	24 01 00 88 	store_32 s9, (s4)
    8c0c:	42 01 00 a8 	load_32 s10, (s2)
    8c10:	29 11 00 0b 	shl s9, s9, 4
    8c14:	29 01 05 c0 	or s9, s9, s10
    8c18:	29 81 02 c0 	or s9, s9, s5
    8c1c:	20 01 00 88 	store_32 s9, (s0)
    8c20:	24 01 00 a8 	load_32 s9, (s4)
    8c24:	29 05 00 05 	add_i s9, s9, 1
    8c28:	24 01 00 88 	store_32 s9, (s4)
    8c2c:	22 01 00 a8 	load_32 s9, (s2)
    8c30:	21 80 04 c0 	or s1, s1, s9
    8c34:	21 00 03 c0 	or s1, s1, s6
    8c38:	20 00 00 88 	store_32 s1, (s0)
    8c3c:	24 00 00 a8 	load_32 s1, (s4)
    8c40:	21 04 00 05 	add_i s1, s1, 1
    8c44:	24 00 00 88 	store_32 s1, (s4)
    8c48:	22 00 00 a8 	load_32 s1, (s2)
    8c4c:	23 80 00 c0 	or s1, s3, s1
    8c50:	21 00 04 c0 	or s1, s1, s8
    8c54:	20 00 00 88 	store_32 s1, (s0)
    8c58:	24 00 00 a8 	load_32 s1, (s4)
    8c5c:	21 04 00 05 	add_i s1, s1, 1
    8c60:	24 00 00 88 	store_32 s1, (s4)
    8c64:	62 00 00 a8 	load_32 s3, (s2)
    8c68:	21 10 00 0b 	shl s1, s1, 4
    8c6c:	63 c0 03 00 	or s3, s3, 240
    8c70:	60 00 00 88 	store_32 s3, (s0)
    8c74:	64 00 00 a8 	load_32 s3, (s4)
    8c78:	63 04 00 05 	add_i s3, s3, 1
    8c7c:	64 00 00 88 	store_32 s3, (s4)
    8c80:	02 01 00 a8 	load_32 s8, (s2)
    8c84:	63 10 00 0b 	shl s3, s3, 4
    8c88:	63 00 04 c0 	or s3, s3, s8
    8c8c:	63 80 02 c0 	or s3, s3, s5
    8c90:	60 00 00 88 	store_32 s3, (s0)
    8c94:	64 00 00 a8 	load_32 s3, (s4)
    8c98:	63 04 00 05 	add_i s3, s3, 1
    8c9c:	64 00 00 88 	store_32 s3, (s4)
    8ca0:	62 00 00 a8 	load_32 s3, (s2)
    8ca4:	63 10 00 03 	xor s3, s3, 4
    8ca8:	62 00 00 88 	store_32 s3, (s2)
    8cac:	63 c0 17 00 	or s3, s3, 1520
    8cb0:	60 00 00 88 	store_32 s3, (s0)
    8cb4:	64 00 00 a8 	load_32 s3, (s4)
    8cb8:	63 04 00 05 	add_i s3, s3, 1
    8cbc:	64 00 00 88 	store_32 s3, (s4)
    8cc0:	02 01 00 a8 	load_32 s8, (s2)
    8cc4:	63 10 00 0b 	shl s3, s3, 4
    8cc8:	63 00 04 c0 	or s3, s3, s8
    8ccc:	63 80 02 c0 	or s3, s3, s5
    8cd0:	60 00 00 88 	store_32 s3, (s0)
    8cd4:	64 00 00 a8 	load_32 s3, (s4)
    8cd8:	63 04 00 05 	add_i s3, s3, 1
    8cdc:	64 00 00 88 	store_32 s3, (s4)
    8ce0:	62 00 00 a8 	load_32 s3, (s2)
    8ce4:	63 10 00 03 	xor s3, s3, 4
    8ce8:	62 00 00 88 	store_32 s3, (s2)
    8cec:	63 c0 0b 00 	or s3, s3, 752
    8cf0:	60 00 00 88 	store_32 s3, (s0)
    8cf4:	64 00 00 a8 	load_32 s3, (s4)
    8cf8:	63 04 00 05 	add_i s3, s3, 1
    8cfc:	64 00 00 88 	store_32 s3, (s4)
    8d00:	02 01 00 a8 	load_32 s8, (s2)
    8d04:	63 10 00 0b 	shl s3, s3, 4
    8d08:	63 00 04 c0 	or s3, s3, s8
    8d0c:	63 80 02 c0 	or s3, s3, s5
    8d10:	60 00 00 88 	store_32 s3, (s0)
    8d14:	64 00 00 a8 	load_32 s3, (s4)
    8d18:	63 04 00 05 	add_i s3, s3, 1
    8d1c:	64 00 00 88 	store_32 s3, (s4)
    8d20:	62 00 00 a8 	load_32 s3, (s2)
    8d24:	63 04 00 03 	xor s3, s3, 1
    8d28:	62 00 00 88 	store_32 s3, (s2)
    8d2c:	63 80 03 c0 	or s3, s3, s7
    8d30:	60 00 00 88 	store_32 s3, (s0)
    8d34:	64 00 00 a8 	load_32 s3, (s4)
    8d38:	63 04 00 05 	add_i s3, s3, 1
    8d3c:	64 00 00 88 	store_32 s3, (s4)
    8d40:	e2 00 00 a8 	load_32 s7, (s2)
    8d44:	63 10 00 0b 	shl s3, s3, 4
    8d48:	63 80 03 c0 	or s3, s3, s7
    8d4c:	63 80 02 c0 	or s3, s3, s5
    8d50:	60 00 00 88 	store_32 s3, (s0)
    8d54:	64 00 00 a8 	load_32 s3, (s4)
    8d58:	63 04 00 05 	add_i s3, s3, 1
    8d5c:	64 00 00 88 	store_32 s3, (s4)
    8d60:	62 00 00 a8 	load_32 s3, (s2)
    8d64:	63 04 00 03 	xor s3, s3, 1
    8d68:	62 00 00 88 	store_32 s3, (s2)
    8d6c:	21 80 01 c0 	or s1, s1, s3
    8d70:	21 00 03 c0 	or s1, s1, s6
    8d74:	20 00 00 88 	store_32 s1, (s0)
    8d78:	24 00 00 a8 	load_32 s1, (s4)
    8d7c:	21 04 00 05 	add_i s1, s1, 1
    8d80:	24 00 00 88 	store_32 s1, (s4)
    8d84:	22 00 00 a8 	load_32 s1, (s2)
    8d88:	21 08 00 00 	or s1, s1, 2
    8d8c:	20 00 00 88 	store_32 s1, (s0)
    8d90:	1f 00 00 f0 	ret

0000000000008d94 __udivsi3:
    8d94:	80 00 00 0f 	move s4, 0
    8d98:	40 80 80 c1 	cmplt_u s2, s0, s1
    8d9c:	22 02 00 f4 	bnz s2, 68 <done>
    8da0:	40 00 c0 c0 	clz s2, s0
    8da4:	60 80 c0 c0 	clz s3, s1
    8da8:	a3 00 61 c0 	sub_i s5, s3, s2
    8dac:	21 80 b2 c0 	shl s1, s1, s5

0000000000008db0 divide_loop:
    8db0:	40 80 70 c1 	cmpge_u s2, s0, s1
    8db4:	42 04 00 01 	and s2, s2, 1
    8db8:	84 00 01 c0 	or s4, s4, s2
    8dbc:	42 7c 00 0b 	shl s2, s2, 31
    8dc0:	42 7c 00 09 	ashr s2, s2, 31
    8dc4:	61 00 11 c0 	and s3, s1, s2
    8dc8:	00 80 61 c0 	sub_i s0, s0, s3
    8dcc:	a5 00 00 f2 	bz s5, 20 <done>
    8dd0:	a5 04 00 06 	sub_i s5, s5, 1
    8dd4:	21 04 00 0a 	shr s1, s1, 1
    8dd8:	84 04 00 0b 	shl s4, s4, 1
    8ddc:	f5 ff ff f7 	b -44 <divide_loop>

0000000000008de0 done:
    8de0:	00 00 f2 c0 	move s0, s4
    8de4:	1f 00 00 f0 	ret

0000000000008de8 __umodsi3:
    8de8:	de 03 ff 05 	add_i sp, sp, -64
    8dec:	1e f3 00 88 	store_32 s24, 60(sp)
    8df0:	3e e3 00 88 	store_32 s25, 56(sp)
    8df4:	fe d3 00 88 	store_32 ra, 52(sp)
    8df8:	00 83 f0 c0 	move s24, s1
    8dfc:	20 03 f0 c0 	move s25, s0
    8e00:	e5 ff ff f9 	call -108 <__udivsi3>
    8e04:	00 00 7c c0 	mull_i s0, s0, s24
    8e08:	fe d3 00 a8 	load_32 ra, 52(sp)
    8e0c:	19 00 60 c0 	sub_i s0, s25, s0
    8e10:	3e e3 00 a8 	load_32 s25, 56(sp)
    8e14:	1e f3 00 a8 	load_32 s24, 60(sp)
    8e18:	de 03 01 05 	add_i sp, sp, 64
    8e1c:	1f 00 00 f0 	ret
